(lp0
(I37
I78
I00
tp1
a(I52
I14
I01
tp2
a(I56
I13
I01
tp3
a(I55
I3
I01
tp4
a(I56
I76
I01
tp5
a(I37
I78
I01
tp6
a(I52
I14
I00
tp7
a(I19
I75
I00
tp8
a(I56
I13
I00
tp9
a(I48
I5
I00
tp10
a(I55
I3
I00
tp11
a(I82
I5
I01
tp12
a(I56
I76
I00
tp13
a(I19
I75
I01
tp14
a(I47
I5
I00
tp15
a(I37
I41
I00
tp16
a(I37
I73
I00
tp17
a(I37
I29
I00
tp18
a(I48
I5
I01
tp19
a(I82
I5
I00
tp20
a(I81
I4
I00
tp21
a(I56
I44
I01
tp22
a(I55
I21
I01
tp23
a(I56
I33
I01
tp24
a(I47
I5
I01
tp25
a(I37
I29
I01
tp26
a(I37
I73
I01
tp27
a(I37
I41
I01
tp28
a(I38
I14
I01
tp29
a(I37
I23
I01
tp30
a(I55
I30
I01
tp31
a(I37
I42
I01
tp32
a(I55
I21
I00
tp33
a(I37
I51
I00
tp34
a(I37
I50
I00
tp35
a(I81
I4
I01
tp36
a(I56
I44
I00
tp37
a(I20
I5
I01
tp38
a(I55
I25
I01
tp39
a(I19
I13
I01
tp40
a(I56
I33
I00
tp41
a(I55
I49
I00
tp42
a(I55
I24
I00
tp43
a(I37
I23
I00
tp44
a(I79
I5
I00
tp45
a(I38
I14
I00
tp46
a(I19
I76
I01
tp47
a(I38
I4
I00
tp48
a(I37
I32
I01
tp49
a(I56
I75
I00
tp50
a(I55
I30
I00
tp51
a(I37
I42
I00
tp52
a(I37
I50
I01
tp53
a(I37
I51
I01
tp54
a(I37
I27
I01
tp55
a(I81
I14
I01
tp56
a(I55
I25
I00
tp57
a(I37
I74
I01
tp58
a(I55
I24
I01
tp59
a(I55
I49
I01
tp60
a(I19
I13
I00
tp61
a(I80
I14
I00
tp62
a(I20
I5
I00
tp63
a(I37
I77
I01
tp64
a(I79
I5
I01
tp65
a(I38
I4
I01
tp66
a(I19
I76
I00
tp67
a(I56
I75
I01
tp68
a(I37
I32
I00
tp69
a(I19
I28
I00
tp70
a(I37
I27
I00
tp71
a(I81
I14
I00
tp72
a(I37
I74
I00
tp73
a(I80
I14
I01
tp74
a(I37
I31
I01
tp75
a(I19
I45
I00
tp76
a(I37
I77
I00
tp77
a(I37
I46
I00
tp78
a(I19
I28
I01
tp79
a(I19
I44
I01
tp80
a(I19
I33
I01
tp81
a(I11
I5
I01
tp82
a(I55
I12
I01
tp83
a(I55
I40
I01
tp84
a(I37
I72
I00
tp85
a(I37
I31
I00
tp86
a(I37
I22
I00
tp87
a(I37
I46
I01
tp88
a(I19
I45
I01
tp89
a(I37
I26
I00
tp90
a(I19
I44
I00
tp91
a(I19
I33
I00
tp92
a(I55
I40
I00
tp93
a(I55
I12
I00
tp94
a(I37
I72
I01
tp95
a(I52
I4
I00
tp96
a(I55
I26
I01
tp97
a(I11
I5
I00
tp98
a(I37
I22
I01
tp99
a(I55
I22
I01
tp100
a(I37
I26
I01
tp101
a(I55
I72
I01
tp102
a(I57
I5
I01
tp103
a(I37
I12
I00
tp104
a(I37
I40
I00
tp105
a(I39
I5
I00
tp106
a(I37
I45
I01
tp107
a(I19
I31
I00
tp108
a(I52
I4
I01
tp109
a(I55
I26
I00
tp110
a(I55
I46
I01
tp111
a(I56
I28
I00
tp112
a(I55
I22
I00
tp113
a(I83
I5
I00
tp114
a(I37
I12
I01
tp115
a(I37
I40
I01
tp116
a(I55
I72
I00
tp117
a(I37
I28
I01
tp118
a(I19
I77
I00
tp119
a(I39
I5
I01
tp120
a(I19
I31
I01
tp121
a(I57
I5
I00
tp122
a(I37
I45
I00
tp123
a(I19
I74
I00
tp124
a(I56
I45
I00
tp125
a(I56
I28
I01
tp126
a(I55
I46
I00
tp127
a(I19
I27
I00
tp128
a(I83
I5
I01
tp129
a(I19
I32
I00
tp130
a(I19
I77
I01
tp131
a(I37
I28
I00
tp132
a(I19
I74
I01
tp133
a(I56
I45
I01
tp134
a(I19
I27
I01
tp135
a(I19
I42
I00
tp136
a(I37
I25
I00
tp137
a(I19
I32
I01
tp138
a(I37
I30
I00
tp139
a(I19
I23
I00
tp140
a(I55
I51
I01
tp141
a(I55
I50
I01
tp142
a(I37
I25
I01
tp143
a(I19
I42
I01
tp144
a(I56
I31
I00
tp145
a(I37
I21
I00
tp146
a(I37
I30
I01
tp147
a(I19
I23
I01
tp148
a(I55
I51
I00
tp149
a(I55
I50
I00
tp150
a(I56
I77
I00
tp151
a(I37
I21
I01
tp152
a(I56
I31
I01
tp153
a(I55
I29
I01
tp154
a(I55
I73
I01
tp155
a(I55
I41
I01
tp156
a(I56
I74
I00
tp157
a(I56
I27
I00
tp158
a(I56
I32
I00
tp159
a(I56
I77
I01
tp160
a(I80
I4
I00
tp161
a(I56
I74
I01
tp162
a(I37
I75
I01
tp163
a(I55
I73
I00
tp164
a(I55
I29
I00
tp165
a(I55
I41
I00
tp166
a(I56
I27
I01
tp167
a(I37
I3
I00
tp168
a(I56
I42
I00
tp169
a(I56
I32
I01
tp170
a(I57
I14
I00
tp171
a(I80
I4
I01
tp172
a(I81
I33
I00
tp173
a(I56
I23
I00
tp174
a(I81
I44
I00
tp175
a(I37
I3
I01
tp176
a(I37
I75
I00
tp177
a(I56
I42
I01
tp178
a(I57
I14
I01
tp179
a(I56
I4
I01
tp180
a(I81
I33
I01
tp181
a(I55
I78
I01
tp182
a(I56
I23
I01
tp183
a(I19
I78
I00
tp184
a(I81
I44
I01
tp185
a(I11
I14
I00
tp186
a(I38
I33
I00
tp187
a(I38
I44
I00
tp188
a(I19
I78
I01
tp189
a(I56
I4
I00
tp190
a(I55
I78
I00
tp191
a(I81
I76
I00
tp192
a(I11
I14
I01
tp193
a(I38
I33
I01
tp194
a(I81
I13
I00
tp195
a(I38
I44
I01
tp196
a(I55
I83
I00
tp197
a(I81
I76
I01
tp198
a(I19
I41
I00
tp199
a(I19
I73
I00
tp200
a(I19
I29
I00
tp201
a(I81
I13
I01
tp202
a(I55
I39
I00
tp203
a(I55
I83
I01
tp204
a(I38
I76
I00
tp205
a(I80
I5
I01
tp206
a(I38
I13
I00
tp207
a(I19
I29
I01
tp208
a(I19
I41
I01
tp209
a(I20
I14
I00
tp210
a(I19
I73
I01
tp211
a(I55
I39
I01
tp212
a(I56
I78
I00
tp213
a(I38
I76
I01
tp214
a(I19
I4
I01
tp215
a(I19
I50
I00
tp216
a(I19
I51
I00
tp217
a(I38
I13
I01
tp218
a(I52
I33
I00
tp219
a(I20
I14
I01
tp220
a(I52
I44
I00
tp221
a(I56
I78
I01
tp222
a(I80
I5
I00
tp223
a(I37
I24
I00
tp224
a(I37
I49
I00
tp225
a(I19
I51
I01
tp226
a(I19
I50
I01
tp227
a(I55
I23
I01
tp228
a(I52
I33
I01
tp229
a(I52
I44
I01
tp230
a(I19
I4
I00
tp231
a(I55
I42
I01
tp232
a(I37
I13
I01
tp233
a(I37
I49
I01
tp234
a(I37
I24
I01
tp235
a(I82
I14
I00
tp236
a(I37
I76
I01
tp237
a(I56
I29
I00
tp238
a(I56
I41
I00
tp239
a(I56
I73
I00
tp240
a(I55
I23
I00
tp241
a(I55
I32
I01
tp242
a(I52
I76
I00
tp243
a(I82
I14
I01
tp244
a(I55
I27
I01
tp245
a(I19
I46
I00
tp246
a(I55
I42
I00
tp247
a(I52
I13
I00
tp248
a(I37
I13
I00
tp249
a(I56
I41
I01
tp250
a(I56
I73
I01
tp251
a(I56
I29
I01
tp252
a(I55
I74
I01
tp253
a(I37
I76
I00
tp254
a(I52
I76
I01
tp255
a(I55
I79
I00
tp256
a(I19
I72
I00
tp257
a(I55
I77
I01
tp258
a(I24
I5
I00
tp259
a(I49
I5
I00
tp260
a(I19
I46
I01
tp261
a(I19
I22
I00
tp262
a(I52
I13
I01
tp263
a(I55
I32
I00
tp264
a(I19
I26
I00
tp265
a(I56
I51
I00
tp266
a(I56
I50
I00
tp267
a(I55
I79
I01
tp268
a(I55
I27
I00
tp269
a(I57
I4
I00
tp270
a(I19
I72
I01
tp271
a(I81
I75
I00
tp272
a(I37
I44
I01
tp273
a(I55
I31
I01
tp274
a(I55
I74
I00
tp275
a(I24
I5
I01
tp276
a(I49
I5
I01
tp277
a(I19
I22
I01
tp278
a(I19
I26
I01
tp279
a(I37
I33
I01
tp280
a(I56
I50
I01
tp281
a(I56
I51
I01
tp282
a(I55
I77
I00
tp283
a(I19
I12
I00
tp284
a(I19
I40
I00
tp285
a(I57
I4
I01
tp286
a(I81
I75
I01
tp287
a(I55
I31
I00
tp288
a(I19
I12
I01
tp289
a(I19
I40
I01
tp290
a(I37
I44
I00
tp291
a(I55
I47
I00
tp292
a(I11
I4
I00
tp293
a(I38
I75
I00
tp294
a(I37
I33
I00
tp295
a(I56
I14
I01
tp296
a(I55
I48
I00
tp297
a(I52
I5
I01
tp298
a(I56
I46
I00
tp299
a(I55
I47
I01
tp300
a(I48
I14
I00
tp301
a(I38
I75
I01
tp302
a(I11
I4
I01
tp303
a(I80
I33
I00
tp304
a(I80
I44
I00
tp305
a(I55
I48
I01
tp306
a(I47
I14
I00
tp307
a(I56
I72
I00
tp308
a(I56
I46
I01
tp309
a(I55
I45
I01
tp310
a(I56
I22
I00
tp311
a(I48
I14
I01
tp312
a(I56
I26
I00
tp313
a(I80
I33
I01
tp314
a(I80
I44
I01
tp315
a(I56
I14
I00
tp316
a(I19
I25
I00
tp317
a(I56
I72
I01
tp318
a(I47
I14
I01
tp319
a(I52
I5
I00
tp320
a(I56
I22
I01
tp321
a(I19
I30
I00
tp322
a(I56
I26
I01
tp323
a(I55
I28
I01
tp324
a(I19
I25
I01
tp325
a(I20
I4
I00
tp326
a(I55
I45
I00
tp327
a(I56
I12
I00
tp328
a(I56
I40
I00
tp329
a(I19
I30
I01
tp330
a(I81
I28
I00
tp331
a(I19
I21
I00
tp332
a(I80
I76
I00
tp333
a(I80
I13
I00
tp334
a(I52
I75
I00
tp335
a(I79
I14
I00
tp336
a(I56
I12
I01
tp337
a(I56
I40
I01
tp338
a(I20
I4
I01
tp339
a(I55
I28
I00
tp340
a(I3
I5
I00
tp341
a(I81
I28
I01
tp342
a(I19
I21
I01
tp343
a(I81
I45
I00
tp344
a(I80
I76
I01
tp345
a(I80
I13
I01
tp346
a(I52
I75
I01
tp347
a(I79
I14
I01
tp348
a(I81
I45
I01
tp349
a(I38
I28
I00
tp350
a(I19
I14
I01
tp351
a(I38
I5
I01
tp352
a(I3
I5
I01
tp353
a(I55
I82
I00
tp354
a(I82
I4
I00
tp355
a(I38
I28
I01
tp356
a(I19
I3
I00
tp357
a(I38
I45
I00
tp358
a(I56
I25
I00
tp359
a(I55
I82
I01
tp360
a(I56
I30
I00
tp361
a(I82
I4
I01
tp362
a(I21
I5
I00
tp363
a(I19
I3
I01
tp364
a(I19
I14
I00
tp365
a(I38
I45
I01
tp366
a(I56
I25
I01
tp367
a(I38
I5
I00
tp368
a(I81
I31
I00
tp369
a(I81
I5
I01
tp370
a(I56
I30
I01
tp371
a(I56
I21
I00
tp372
a(I30
I5
I00
tp373
a(I21
I5
I01
tp374
a(I81
I31
I01
tp375
a(I81
I77
I00
tp376
a(I25
I5
I00
tp377
a(I56
I21
I01
tp378
a(I81
I74
I00
tp379
a(I55
I20
I00
tp380
a(I81
I27
I00
tp381
a(I30
I5
I01
tp382
a(I39
I14
I00
tp383
a(I55
I75
I01
tp384
a(I81
I77
I01
tp385
a(I38
I31
I00
tp386
a(I81
I32
I00
tp387
a(I55
I20
I01
tp388
a(I52
I28
I00
tp389
a(I25
I5
I01
tp390
a(I81
I74
I01
tp391
a(I81
I5
I00
tp392
a(I81
I27
I01
tp393
a(I83
I14
I00
tp394
a(I39
I14
I01
tp395
a(I38
I31
I01
tp396
a(I81
I32
I01
tp397
a(I38
I77
I00
tp398
a(I81
I42
I00
tp399
a(I52
I28
I01
tp400
a(I52
I45
I00
tp401
a(I56
I3
I00
tp402
a(I38
I74
I00
tp403
a(I81
I23
I00
tp404
a(I37
I83
I00
tp405
a(I55
I75
I00
tp406
a(I38
I27
I00
tp407
a(I83
I14
I01
tp408
a(I38
I77
I01
tp409
a(I81
I42
I01
tp410
a(I38
I32
I00
tp411
a(I52
I45
I01
tp412
a(I56
I3
I01
tp413
a(I38
I74
I01
tp414
a(I48
I4
I00
tp415
a(I37
I83
I01
tp416
a(I80
I75
I00
tp417
a(I81
I23
I01
tp418
a(I37
I39
I00
tp419
a(I12
I5
I00
tp420
a(I40
I5
I00
tp421
a(I38
I27
I01
tp422
a(I55
I11
I00
tp423
a(I47
I4
I00
tp424
a(I38
I32
I01
tp425
a(I38
I42
I00
tp426
a(I48
I4
I01
tp427
a(I80
I75
I01
tp428
a(I37
I39
I01
tp429
a(I57
I33
I00
tp430
a(I55
I11
I01
tp431
a(I12
I5
I01
tp432
a(I40
I5
I01
tp433
a(I38
I23
I00
tp434
a(I57
I44
I00
tp435
a(I47
I4
I01
tp436
a(I38
I42
I01
tp437
a(I26
I5
I00
tp438
a(I22
I5
I00
tp439
a(I52
I31
I00
tp440
a(I57
I33
I01
tp441
a(I38
I23
I01
tp442
a(I19
I24
I00
tp443
a(I19
I49
I00
tp444
a(I72
I5
I00
tp445
a(I57
I44
I01
tp446
a(I55
I57
I00
tp447
a(I26
I5
I01
tp448
a(I52
I31
I01
tp449
a(I22
I5
I01
tp450
a(I19
I49
I01
tp451
a(I19
I24
I01
tp452
a(I46
I5
I00
tp453
a(I52
I77
I00
tp454
a(I11
I33
I00
tp455
a(I72
I5
I01
tp456
a(I55
I57
I01
tp457
a(I52
I74
I00
tp458
a(I11
I44
I00
tp459
a(I79
I4
I00
tp460
a(I52
I27
I00
tp461
a(I52
I77
I01
tp462
a(I57
I76
I00
tp463
a(I46
I5
I01
tp464
a(I52
I32
I00
tp465
a(I11
I33
I01
tp466
a(I52
I74
I01
tp467
a(I11
I44
I01
tp468
a(I57
I13
I00
tp469
a(I79
I4
I01
tp470
a(I52
I27
I01
tp471
a(I37
I4
I01
tp472
a(I57
I76
I01
tp473
a(I81
I78
I00
tp474
a(I52
I32
I01
tp475
a(I52
I42
I00
tp476
a(I57
I13
I01
tp477
a(I37
I79
I00
tp478
a(I52
I23
I00
tp479
a(I81
I78
I01
tp480
a(I80
I28
I00
tp481
a(I52
I42
I01
tp482
a(I11
I76
I00
tp483
a(I51
I5
I00
tp484
a(I50
I5
I00
tp485
a(I37
I79
I01
tp486
a(I52
I23
I01
tp487
a(I11
I13
I00
tp488
a(I37
I4
I00
tp489
a(I80
I28
I01
tp490
a(I56
I24
I00
tp491
a(I56
I49
I00
tp492
a(I20
I33
I00
tp493
a(I38
I78
I00
tp494
a(I80
I45
I00
tp495
a(I11
I76
I01
tp496
a(I20
I44
I00
tp497
a(I50
I5
I01
tp498
a(I51
I5
I01
tp499
a(I11
I13
I01
tp500
a(I55
I13
I01
tp501
a(I56
I49
I01
tp502
a(I56
I24
I01
tp503
a(I20
I33
I01
tp504
a(I38
I78
I01
tp505
a(I80
I45
I01
tp506
a(I20
I44
I01
tp507
a(I81
I29
I00
tp508
a(I81
I41
I00
tp509
a(I81
I73
I00
tp510
a(I55
I76
I01
tp511
a(I73
I5
I00
tp512
a(I29
I5
I00
tp513
a(I41
I5
I00
tp514
a(I37
I47
I00
tp515
a(I81
I41
I01
tp516
a(I81
I29
I01
tp517
a(I81
I73
I01
tp518
a(I39
I4
I00
tp519
a(I29
I5
I01
tp520
a(I41
I5
I01
tp521
a(I73
I5
I01
tp522
a(I37
I48
I00
tp523
a(I37
I47
I01
tp524
a(I55
I13
I00
tp525
a(I20
I76
I00
tp526
a(I82
I33
I00
tp527
a(I39
I4
I01
tp528
a(I83
I4
I00
tp529
a(I37
I48
I01
tp530
a(I81
I51
I00
tp531
a(I81
I50
I00
tp532
a(I38
I73
I00
tp533
a(I38
I41
I00
tp534
a(I38
I29
I00
tp535
a(I20
I13
I00
tp536
a(I82
I44
I00
tp537
a(I55
I76
I00
tp538
a(I80
I31
I00
tp539
a(I20
I76
I01
tp540
a(I82
I33
I01
tp541
a(I81
I51
I01
tp542
a(I81
I50
I01
tp543
a(I38
I73
I01
tp544
a(I38
I41
I01
tp545
a(I38
I29
I01
tp546
a(I83
I4
I01
tp547
a(I20
I13
I01
tp548
a(I82
I44
I01
tp549
a(I80
I31
I01
tp550
a(I80
I77
I00
tp551
a(I78
I5
I00
tp552
a(I52
I78
I00
tp553
a(I55
I44
I01
tp554
a(I80
I74
I00
tp555
a(I55
I33
I01
tp556
a(I80
I27
I00
tp557
a(I80
I77
I01
tp558
a(I38
I50
I00
tp559
a(I38
I51
I00
tp560
a(I52
I78
I01
tp561
a(I80
I32
I00
tp562
a(I78
I5
I01
tp563
a(I80
I74
I01
tp564
a(I57
I75
I00
tp565
a(I80
I27
I01
tp566
a(I82
I76
I00
tp567
a(I38
I50
I01
tp568
a(I38
I51
I01
tp569
a(I80
I32
I01
tp570
a(I82
I13
I00
tp571
a(I80
I42
I00
tp572
a(I81
I46
I00
tp573
a(I57
I75
I01
tp574
a(I55
I44
I00
tp575
a(I82
I76
I01
tp576
a(I55
I33
I00
tp577
a(I80
I23
I00
tp578
a(I82
I13
I01
tp579
a(I80
I42
I01
tp580
a(I81
I46
I01
tp581
a(I81
I72
I00
tp582
a(I81
I22
I00
tp583
a(I52
I73
I00
tp584
a(I52
I29
I00
tp585
a(I52
I41
I00
tp586
a(I81
I26
I00
tp587
a(I80
I23
I01
tp588
a(I11
I75
I00
tp589
a(I81
I72
I01
tp590
a(I37
I82
I00
tp591
a(I81
I22
I01
tp592
a(I55
I80
I00
tp593
a(I52
I29
I01
tp594
a(I52
I41
I01
tp595
a(I52
I73
I01
tp596
a(I81
I26
I01
tp597
a(I38
I46
I00
tp598
a(I11
I75
I01
tp599
a(I48
I33
I00
tp600
a(I55
I80
I01
tp601
a(I37
I82
I01
tp602
a(I48
I44
I00
tp603
a(I81
I12
I00
tp604
a(I81
I40
I00
tp605
a(I38
I46
I01
tp606
a(I38
I72
I00
tp607
a(I24
I14
I00
tp608
a(I49
I14
I00
tp609
a(I47
I33
I00
tp610
a(I38
I22
I00
tp611
a(I52
I51
I00
tp612
a(I52
I50
I00
tp613
a(I48
I33
I01
tp614
a(I47
I44
I00
tp615
a(I38
I26
I00
tp616
a(I48
I44
I01
tp617
a(I81
I12
I01
tp618
a(I81
I40
I01
tp619
a(I38
I72
I01
tp620
a(I23
I5
I00
tp621
a(I47
I33
I01
tp622
a(I49
I14
I01
tp623
a(I24
I14
I01
tp624
a(I38
I22
I01
tp625
a(I52
I51
I01
tp626
a(I52
I50
I01
tp627
a(I47
I44
I01
tp628
a(I38
I26
I01
tp629
a(I42
I5
I00
tp630
a(I23
I5
I01
tp631
a(I38
I40
I00
tp632
a(I38
I12
I00
tp633
a(I20
I75
I00
tp634
a(I37
I20
I00
tp635
a(I57
I28
I00
tp636
a(I42
I5
I01
tp637
a(I48
I76
I00
tp638
a(I32
I5
I00
tp639
a(I38
I40
I01
tp640
a(I38
I12
I01
tp641
a(I37
I20
I01
tp642
a(I27
I5
I00
tp643
a(I20
I75
I01
tp644
a(I48
I13
I00
tp645
a(I47
I76
I00
tp646
a(I57
I28
I01
tp647
a(I74
I5
I00
tp648
a(I79
I33
I00
tp649
a(I48
I76
I01
tp650
a(I80
I78
I00
tp651
a(I37
I14
I01
tp652
a(I32
I5
I01
tp653
a(I57
I45
I00
tp654
a(I79
I44
I00
tp655
a(I81
I25
I00
tp656
a(I47
I13
I00
tp657
a(I77
I5
I00
tp658
a(I48
I13
I01
tp659
a(I52
I46
I00
tp660
a(I27
I5
I01
tp661
a(I47
I76
I01
tp662
a(I81
I30
I00
tp663
a(I79
I33
I01
tp664
a(I19
I83
I00
tp665
a(I74
I5
I01
tp666
a(I80
I78
I01
tp667
a(I81
I25
I01
tp668
a(I57
I45
I01
tp669
a(I79
I44
I01
tp670
a(I47
I13
I01
tp671
a(I52
I46
I01
tp672
a(I52
I72
I00
tp673
a(I77
I5
I01
tp674
a(I11
I28
I00
tp675
a(I31
I5
I00
tp676
a(I19
I83
I01
tp677
a(I81
I30
I01
tp678
a(I52
I22
I00
tp679
a(I19
I39
I00
tp680
a(I52
I26
I00
tp681
a(I81
I21
I00
tp682
a(I52
I72
I01
tp683
a(I11
I28
I01
tp684
a(I82
I75
I00
tp685
a(I52
I22
I01
tp686
a(I31
I5
I01
tp687
a(I38
I25
I00
tp688
a(I11
I45
I00
tp689
a(I19
I39
I01
tp690
a(I52
I26
I01
tp691
a(I81
I21
I01
tp692
a(I37
I11
I00
tp693
a(I37
I14
I00
tp694
a(I82
I75
I01
tp695
a(I38
I30
I00
tp696
a(I79
I76
I00
tp697
a(I38
I25
I01
tp698
a(I11
I45
I01
tp699
a(I37
I11
I01
tp700
a(I52
I12
I00
tp701
a(I52
I40
I00
tp702
a(I80
I73
I00
tp703
a(I80
I41
I00
tp704
a(I80
I29
I00
tp705
a(I79
I13
I00
tp706
a(I57
I31
I00
tp707
a(I38
I30
I01
tp708
a(I79
I76
I01
tp709
a(I38
I21
I00
tp710
a(I52
I40
I01
tp711
a(I52
I12
I01
tp712
a(I80
I73
I01
tp713
a(I80
I29
I01
tp714
a(I80
I41
I01
tp715
a(I55
I52
I00
tp716
a(I79
I13
I01
tp717
a(I57
I31
I01
tp718
a(I57
I77
I00
tp719
a(I38
I21
I01
tp720
a(I55
I52
I01
tp721
a(I37
I57
I00
tp722
a(I45
I5
I00
tp723
a(I81
I3
I00
tp724
a(I20
I28
I00
tp725
a(I3
I14
I00
tp726
a(I57
I74
I00
tp727
a(I57
I77
I01
tp728
a(I37
I57
I01
tp729
a(I57
I27
I00
tp730
a(I80
I50
I00
tp731
a(I80
I51
I00
tp732
a(I81
I3
I01
tp733
a(I56
I83
I00
tp734
a(I45
I5
I01
tp735
a(I57
I74
I01
tp736
a(I57
I32
I00
tp737
a(I20
I28
I01
tp738
a(I11
I31
I00
tp739
a(I39
I33
I00
tp740
a(I3
I14
I01
tp741
a(I28
I5
I00
tp742
a(I39
I44
I00
tp743
a(I57
I27
I01
tp744
a(I20
I45
I00
tp745
a(I80
I50
I01
tp746
a(I80
I51
I01
tp747
a(I56
I83
I01
tp748
a(I57
I32
I01
tp749
a(I11
I31
I01
tp750
a(I39
I33
I01
tp751
a(I56
I39
I00
tp752
a(I83
I33
I00
tp753
a(I28
I5
I01
tp754
a(I39
I44
I01
tp755
a(I57
I42
I00
tp756
a(I20
I45
I01
tp757
a(I11
I77
I00
tp758
a(I83
I44
I00
tp759
a(I52
I25
I00
tp760
a(I38
I3
I00
tp761
a(I11
I74
I00
tp762
a(I56
I39
I01
tp763
a(I57
I23
I00
tp764
a(I83
I33
I01
tp765
a(I57
I42
I01
tp766
a(I11
I77
I01
tp767
a(I52
I30
I00
tp768
a(I19
I79
I00
tp769
a(I11
I27
I00
tp770
a(I52
I25
I01
tp771
a(I83
I44
I01
tp772
a(I38
I3
I01
tp773
a(I11
I74
I01
tp774
a(I11
I32
I00
tp775
a(I57
I23
I01
tp776
a(I21
I14
I00
tp777
a(I19
I79
I01
tp778
a(I48
I75
I00
tp779
a(I52
I30
I01
tp780
a(I82
I28
I00
tp781
a(I11
I27
I01
tp782
a(I52
I21
I00
tp783
a(I11
I32
I01
tp784
a(I55
I38
I00
tp785
a(I39
I76
I00
tp786
a(I47
I75
I00
tp787
a(I21
I14
I01
tp788
a(I48
I75
I01
tp789
a(I56
I5
I01
tp790
a(I82
I28
I01
tp791
a(I80
I46
I00
tp792
a(I11
I42
I00
tp793
a(I49
I4
I00
tp794
a(I24
I4
I00
tp795
a(I30
I14
I00
tp796
a(I39
I13
I00
tp797
a(I52
I21
I01
tp798
a(I55
I38
I01
tp799
a(I82
I45
I00
tp800
a(I20
I31
I00
tp801
a(I39
I76
I01
tp802
a(I47
I75
I01
tp803
a(I11
I23
I00
tp804
a(I80
I46
I01
tp805
a(I25
I14
I00
tp806
a(I11
I42
I01
tp807
a(I83
I76
I00
tp808
a(I80
I72
I00
tp809
a(I49
I4
I01
tp810
a(I24
I4
I01
tp811
a(I30
I14
I01
tp812
a(I39
I13
I01
tp813
a(I82
I45
I01
tp814
a(I20
I31
I01
tp815
a(I80
I22
I00
tp816
a(I83
I13
I00
tp817
a(I11
I23
I01
tp818
a(I80
I26
I00
tp819
a(I80
I72
I01
tp820
a(I25
I14
I01
tp821
a(I83
I76
I01
tp822
a(I20
I77
I00
tp823
a(I19
I47
I00
tp824
a(I80
I22
I01
tp825
a(I20
I74
I00
tp826
a(I55
I81
I00
tp827
a(I83
I13
I01
tp828
a(I80
I26
I01
tp829
a(I20
I77
I01
tp830
a(I20
I27
I00
tp831
a(I19
I47
I01
tp832
a(I19
I48
I00
tp833
a(I55
I81
I01
tp834
a(I20
I74
I01
tp835
a(I20
I32
I00
tp836
a(I52
I3
I00
tp837
a(I56
I5
I00
tp838
a(I80
I12
I00
tp839
a(I80
I40
I00
tp840
a(I20
I27
I01
tp841
a(I19
I48
I01
tp842
a(I79
I75
I00
tp843
a(I75
I5
I00
tp844
a(I20
I32
I01
tp845
a(I52
I3
I01
tp846
a(I56
I79
I00
tp847
a(I80
I12
I01
tp848
a(I80
I40
I01
tp849
a(I82
I31
I00
tp850
a(I79
I75
I01
tp851
a(I20
I42
I00
tp852
a(I75
I5
I01
tp853
a(I56
I79
I01
tp854
a(I81
I24
I00
tp855
a(I81
I49
I00
tp856
a(I20
I23
I00
tp857
a(I40
I14
I00
tp858
a(I12
I14
I00
tp859
a(I57
I78
I00
tp860
a(I82
I31
I01
tp861
a(I20
I42
I01
tp862
a(I81
I24
I01
tp863
a(I81
I49
I01
tp864
a(I82
I77
I00
tp865
a(I20
I23
I01
tp866
a(I55
I4
I01
tp867
a(I57
I78
I01
tp868
a(I12
I14
I01
tp869
a(I40
I14
I01
tp870
a(I82
I74
I00
tp871
a(I48
I28
I00
tp872
a(I82
I77
I01
tp873
a(I82
I27
I00
tp874
a(I82
I74
I01
tp875
a(I82
I32
I00
tp876
a(I26
I14
I00
tp877
a(I47
I28
I00
tp878
a(I48
I28
I01
tp879
a(I22
I14
I00
tp880
a(I82
I27
I01
tp881
a(I38
I49
I00
tp882
a(I38
I24
I00
tp883
a(I72
I14
I00
tp884
a(I48
I45
I00
tp885
a(I82
I32
I01
tp886
a(I80
I25
I00
tp887
a(I11
I78
I00
tp888
a(I56
I47
I00
tp889
a(I26
I14
I01
tp890
a(I19
I5
I01
tp891
a(I47
I28
I01
tp892
a(I22
I14
I01
tp893
a(I38
I24
I01
tp894
a(I38
I49
I01
tp895
a(I82
I42
I00
tp896
a(I80
I30
I00
tp897
a(I56
I47
I01
tp898
a(I47
I45
I00
tp899
a(I48
I45
I01
tp900
a(I80
I25
I01
tp901
a(I72
I14
I01
tp902
a(I11
I78
I01
tp903
a(I56
I48
I00
tp904
a(I46
I14
I00
tp905
a(I82
I23
I00
tp906
a(I57
I73
I00
tp907
a(I57
I29
I00
tp908
a(I57
I41
I00
tp909
a(I82
I42
I01
tp910
a(I80
I30
I01
tp911
a(I55
I4
I00
tp912
a(I56
I48
I01
tp913
a(I47
I45
I01
tp914
a(I46
I14
I01
tp915
a(I80
I21
I00
tp916
a(I82
I23
I01
tp917
a(I57
I41
I01
tp918
a(I57
I73
I01
tp919
a(I57
I29
I01
tp920
a(I3
I4
I00
tp921
a(I19
I82
I00
tp922
a(I80
I21
I01
tp923
a(I39
I75
I00
tp924
a(I3
I4
I01
tp925
a(I37
I80
I00
tp926
a(I19
I82
I01
tp927
a(I79
I28
I00
tp928
a(I39
I75
I01
tp929
a(I37
I80
I01
tp930
a(I19
I5
I00
tp931
a(I57
I50
I00
tp932
a(I57
I51
I00
tp933
a(I83
I75
I00
tp934
a(I11
I41
I00
tp935
a(I11
I29
I00
tp936
a(I11
I73
I00
tp937
a(I48
I31
I00
tp938
a(I79
I28
I01
tp939
a(I20
I78
I00
tp940
a(I79
I45
I00
tp941
a(I57
I50
I01
tp942
a(I57
I51
I01
tp943
a(I11
I73
I01
tp944
a(I11
I41
I01
tp945
a(I11
I29
I01
tp946
a(I83
I75
I01
tp947
a(I48
I31
I01
tp948
a(I47
I31
I00
tp949
a(I51
I14
I00
tp950
a(I50
I14
I00
tp951
a(I20
I78
I01
tp952
a(I52
I49
I00
tp953
a(I52
I24
I00
tp954
a(I79
I45
I01
tp955
a(I48
I77
I00
tp956
a(I47
I31
I01
tp957
a(I80
I3
I00
tp958
a(I48
I74
I00
tp959
a(I21
I4
I00
tp960
a(I51
I14
I01
tp961
a(I50
I14
I01
tp962
a(I52
I24
I01
tp963
a(I52
I49
I01
tp964
a(I48
I77
I01
tp965
a(I47
I77
I00
tp966
a(I13
I5
I00
tp967
a(I48
I27
I00
tp968
a(I19
I20
I00
tp969
a(I80
I3
I01
tp970
a(I48
I74
I01
tp971
a(I11
I50
I00
tp972
a(I47
I74
I00
tp973
a(I11
I51
I00
tp974
a(I21
I4
I01
tp975
a(I48
I32
I00
tp976
a(I76
I5
I00
tp977
a(I47
I77
I01
tp978
a(I48
I27
I01
tp979
a(I19
I20
I01
tp980
a(I47
I27
I00
tp981
a(I13
I5
I01
tp982
a(I30
I4
I00
tp983
a(I11
I50
I01
tp984
a(I11
I51
I01
tp985
a(I47
I74
I01
tp986
a(I48
I32
I01
tp987
a(I47
I32
I00
tp988
a(I76
I5
I01
tp989
a(I41
I14
I00
tp990
a(I73
I14
I00
tp991
a(I29
I14
I00
tp992
a(I47
I27
I01
tp993
a(I25
I4
I00
tp994
a(I30
I4
I01
tp995
a(I48
I42
I00
tp996
a(I57
I46
I00
tp997
a(I47
I32
I01
tp998
a(I56
I82
I00
tp999
a(I20
I29
I00
tp1000
a(I73
I14
I01
tp1001
a(I20
I41
I00
tp1002
a(I29
I14
I01
tp1003
a(I20
I73
I00
tp1004
a(I41
I14
I01
tp1005
a(I82
I78
I00
tp1006
a(I25
I4
I01
tp1007
a(I79
I31
I00
tp1008
a(I48
I23
I00
tp1009
a(I48
I42
I01
tp1010
a(I57
I46
I01
tp1011
a(I47
I42
I00
tp1012
a(I56
I82
I01
tp1013
a(I57
I72
I00
tp1014
a(I20
I29
I01
tp1015
a(I20
I41
I01
tp1016
a(I20
I73
I01
tp1017
a(I82
I78
I01
tp1018
a(I79
I31
I01
tp1019
a(I48
I23
I01
tp1020
a(I47
I23
I00
tp1021
a(I57
I22
I00
tp1022
a(I47
I42
I01
tp1023
a(I57
I26
I00
tp1024
a(I57
I72
I01
tp1025
a(I79
I77
I00
tp1026
a(I44
I5
I00
tp1027
a(I57
I22
I01
tp1028
a(I47
I23
I01
tp1029
a(I39
I28
I00
tp1030
a(I57
I26
I01
tp1031
a(I33
I5
I00
tp1032
a(I79
I74
I00
tp1033
a(I79
I77
I01
tp1034
a(I11
I46
I00
tp1035
a(I19
I11
I00
tp1036
a(I79
I27
I00
tp1037
a(I44
I5
I01
tp1038
a(I39
I28
I01
tp1039
a(I20
I51
I00
tp1040
a(I20
I50
I00
tp1041
a(I79
I74
I01
tp1042
a(I33
I5
I01
tp1043
a(I79
I32
I00
tp1044
a(I11
I46
I01
tp1045
a(I19
I11
I01
tp1046
a(I83
I28
I00
tp1047
a(I79
I27
I01
tp1048
a(I78
I14
I00
tp1049
a(I57
I12
I00
tp1050
a(I57
I40
I00
tp1051
a(I39
I45
I00
tp1052
a(I20
I51
I01
tp1053
a(I11
I72
I00
tp1054
a(I20
I50
I01
tp1055
a(I79
I32
I01
tp1056
a(I83
I28
I01
tp1057
a(I11
I22
I00
tp1058
a(I12
I4
I00
tp1059
a(I40
I4
I00
tp1060
a(I49
I33
I00
tp1061
a(I24
I33
I00
tp1062
a(I56
I20
I00
tp1063
a(I57
I40
I01
tp1064
a(I57
I12
I01
tp1065
a(I39
I45
I01
tp1066
a(I78
I14
I01
tp1067
a(I11
I26
I00
tp1068
a(I11
I72
I01
tp1069
a(I82
I41
I00
tp1070
a(I82
I73
I00
tp1071
a(I82
I29
I00
tp1072
a(I24
I44
I00
tp1073
a(I49
I44
I00
tp1074
a(I79
I42
I00
tp1075
a(I11
I22
I01
tp1076
a(I83
I45
I00
tp1077
a(I56
I20
I01
tp1078
a(I12
I4
I01
tp1079
a(I40
I4
I01
tp1080
a(I49
I33
I01
tp1081
a(I24
I33
I01
tp1082
a(I11
I26
I01
tp1083
a(I82
I73
I01
tp1084
a(I82
I29
I01
tp1085
a(I82
I41
I01
tp1086
a(I24
I44
I01
tp1087
a(I49
I44
I01
tp1088
a(I37
I52
I00
tp1089
a(I79
I23
I00
tp1090
a(I79
I42
I01
tp1091
a(I83
I45
I01
tp1092
a(I19
I57
I00
tp1093
a(I37
I52
I01
tp1094
a(I79
I23
I01
tp1095
a(I19
I57
I01
tp1096
a(I26
I4
I00
tp1097
a(I11
I12
I00
tp1098
a(I11
I40
I00
tp1099
a(I22
I4
I00
tp1100
a(I72
I4
I00
tp1101
a(I26
I4
I01
tp1102
a(I11
I12
I01
tp1103
a(I11
I40
I01
tp1104
a(I82
I50
I00
tp1105
a(I82
I51
I00
tp1106
a(I22
I4
I01
tp1107
a(I20
I46
I00
tp1108
a(I72
I4
I01
tp1109
a(I80
I49
I00
tp1110
a(I80
I24
I00
tp1111
a(I82
I51
I01
tp1112
a(I82
I50
I01
tp1113
a(I39
I31
I00
tp1114
a(I46
I4
I00
tp1115
a(I20
I46
I01
tp1116
a(I24
I76
I00
tp1117
a(I49
I76
I00
tp1118
a(I48
I78
I00
tp1119
a(I57
I25
I00
tp1120
a(I20
I72
I00
tp1121
a(I80
I24
I01
tp1122
a(I80
I49
I01
tp1123
a(I39
I31
I01
tp1124
a(I46
I4
I01
tp1125
a(I49
I13
I00
tp1126
a(I24
I13
I00
tp1127
a(I24
I76
I01
tp1128
a(I49
I76
I01
tp1129
a(I48
I78
I01
tp1130
a(I20
I22
I00
tp1131
a(I57
I25
I01
tp1132
a(I57
I30
I00
tp1133
a(I47
I78
I00
tp1134
a(I56
I11
I00
tp1135
a(I20
I72
I01
tp1136
a(I83
I31
I00
tp1137
a(I20
I26
I00
tp1138
a(I39
I77
I00
tp1139
a(I24
I13
I01
tp1140
a(I49
I13
I01
tp1141
a(I20
I22
I01
tp1142
a(I56
I11
I01
tp1143
a(I57
I30
I01
tp1144
a(I47
I78
I01
tp1145
a(I39
I74
I00
tp1146
a(I20
I26
I01
tp1147
a(I83
I31
I01
tp1148
a(I39
I77
I01
tp1149
a(I39
I27
I00
tp1150
a(I57
I21
I00
tp1151
a(I39
I74
I01
tp1152
a(I83
I77
I00
tp1153
a(I39
I32
I00
tp1154
a(I39
I27
I01
tp1155
a(I57
I21
I01
tp1156
a(I83
I74
I00
tp1157
a(I11
I25
I00
tp1158
a(I20
I12
I00
tp1159
a(I20
I40
I00
tp1160
a(I83
I77
I01
tp1161
a(I23
I14
I00
tp1162
a(I37
I38
I00
tp1163
a(I39
I32
I01
tp1164
a(I83
I27
I00
tp1165
a(I82
I46
I00
tp1166
a(I83
I74
I01
tp1167
a(I11
I25
I01
tp1168
a(I20
I40
I01
tp1169
a(I20
I12
I01
tp1170
a(I11
I30
I00
tp1171
a(I37
I38
I01
tp1172
a(I56
I57
I00
tp1173
a(I55
I14
I01
tp1174
a(I42
I14
I00
tp1175
a(I83
I32
I00
tp1176
a(I23
I14
I01
tp1177
a(I39
I42
I00
tp1178
a(I83
I27
I01
tp1179
a(I82
I46
I01
tp1180
a(I48
I41
I00
tp1181
a(I48
I29
I00
tp1182
a(I48
I73
I00
tp1183
a(I50
I4
I00
tp1184
a(I51
I4
I00
tp1185
a(I56
I57
I01
tp1186
a(I11
I30
I01
tp1187
a(I81
I83
I00
tp1188
a(I83
I32
I01
tp1189
a(I82
I72
I00
tp1190
a(I42
I14
I01
tp1191
a(I39
I42
I01
tp1192
a(I39
I23
I00
tp1193
a(I48
I41
I01
tp1194
a(I48
I73
I01
tp1195
a(I48
I29
I01
tp1196
a(I81
I83
I01
tp1197
a(I51
I4
I01
tp1198
a(I50
I4
I01
tp1199
a(I79
I78
I00
tp1200
a(I82
I22
I00
tp1201
a(I47
I73
I00
tp1202
a(I47
I41
I00
tp1203
a(I11
I21
I00
tp1204
a(I47
I29
I00
tp1205
a(I82
I72
I01
tp1206
a(I82
I26
I00
tp1207
a(I32
I14
I00
tp1208
a(I83
I42
I00
tp1209
a(I39
I23
I01
tp1210
a(I81
I39
I00
tp1211
a(I79
I78
I01
tp1212
a(I82
I22
I01
tp1213
a(I11
I21
I01
tp1214
a(I47
I41
I01
tp1215
a(I47
I73
I01
tp1216
a(I47
I29
I01
tp1217
a(I27
I14
I00
tp1218
a(I82
I26
I01
tp1219
a(I83
I42
I01
tp1220
a(I83
I23
I00
tp1221
a(I32
I14
I01
tp1222
a(I37
I81
I00
tp1223
a(I81
I39
I01
tp1224
a(I74
I14
I00
tp1225
a(I57
I3
I00
tp1226
a(I27
I14
I01
tp1227
a(I37
I81
I01
tp1228
a(I83
I23
I01
tp1229
a(I77
I14
I00
tp1230
a(I3
I33
I00
tp1231
a(I57
I3
I01
tp1232
a(I74
I14
I01
tp1233
a(I3
I44
I00
tp1234
a(I48
I50
I00
tp1235
a(I48
I51
I00
tp1236
a(I41
I4
I00
tp1237
a(I73
I4
I00
tp1238
a(I29
I4
I00
tp1239
a(I38
I83
I00
tp1240
a(I82
I12
I00
tp1241
a(I82
I40
I00
tp1242
a(I3
I33
I01
tp1243
a(I77
I14
I01
tp1244
a(I48
I50
I01
tp1245
a(I48
I51
I01
tp1246
a(I3
I44
I01
tp1247
a(I38
I83
I01
tp1248
a(I41
I4
I01
tp1249
a(I29
I4
I01
tp1250
a(I73
I4
I01
tp1251
a(I55
I14
I00
tp1252
a(I20
I25
I00
tp1253
a(I47
I50
I00
tp1254
a(I47
I51
I00
tp1255
a(I82
I12
I01
tp1256
a(I82
I40
I01
tp1257
a(I31
I14
I00
tp1258
a(I38
I39
I00
tp1259
a(I20
I25
I01
tp1260
a(I47
I50
I01
tp1261
a(I47
I51
I01
tp1262
a(I20
I30
I00
tp1263
a(I31
I14
I01
tp1264
a(I38
I39
I01
tp1265
a(I11
I3
I00
tp1266
a(I20
I30
I01
tp1267
a(I79
I41
I00
tp1268
a(I79
I73
I00
tp1269
a(I79
I29
I00
tp1270
a(I11
I3
I01
tp1271
a(I79
I29
I01
tp1272
a(I79
I41
I01
tp1273
a(I79
I73
I01
tp1274
a(I20
I21
I00
tp1275
a(I20
I21
I01
tp1276
a(I3
I76
I00
tp1277
a(I21
I33
I00
tp1278
a(I21
I44
I00
tp1279
a(I55
I56
I00
tp1280
a(I3
I13
I00
tp1281
a(I3
I76
I01
tp1282
a(I78
I4
I00
tp1283
a(I21
I33
I01
tp1284
a(I48
I46
I00
tp1285
a(I55
I56
I01
tp1286
a(I21
I44
I01
tp1287
a(I49
I75
I00
tp1288
a(I24
I75
I00
tp1289
a(I3
I13
I01
tp1290
a(I78
I4
I01
tp1291
a(I79
I51
I00
tp1292
a(I79
I50
I00
tp1293
a(I48
I46
I01
tp1294
a(I82
I25
I00
tp1295
a(I30
I33
I00
tp1296
a(I24
I75
I01
tp1297
a(I49
I75
I01
tp1298
a(I47
I46
I00
tp1299
a(I30
I44
I00
tp1300
a(I45
I14
I00
tp1301
a(I39
I78
I00
tp1302
a(I79
I50
I01
tp1303
a(I48
I72
I00
tp1304
a(I79
I51
I01
tp1305
a(I82
I25
I01
tp1306
a(I30
I33
I01
tp1307
a(I82
I30
I00
tp1308
a(I25
I33
I00
tp1309
a(I47
I46
I01
tp1310
a(I48
I22
I00
tp1311
a(I30
I44
I01
tp1312
a(I39
I78
I01
tp1313
a(I25
I44
I00
tp1314
a(I48
I72
I01
tp1315
a(I81
I79
I00
tp1316
a(I45
I14
I01
tp1317
a(I52
I83
I00
tp1318
a(I48
I26
I00
tp1319
a(I82
I30
I01
tp1320
a(I47
I72
I00
tp1321
a(I25
I33
I01
tp1322
a(I48
I22
I01
tp1323
a(I81
I79
I01
tp1324
a(I52
I83
I01
tp1325
a(I25
I44
I01
tp1326
a(I83
I78
I00
tp1327
a(I48
I26
I01
tp1328
a(I47
I22
I00
tp1329
a(I20
I3
I00
tp1330
a(I47
I72
I01
tp1331
a(I28
I14
I00
tp1332
a(I47
I26
I00
tp1333
a(I82
I21
I00
tp1334
a(I83
I78
I01
tp1335
a(I47
I22
I01
tp1336
a(I52
I39
I00
tp1337
a(I20
I3
I01
tp1338
a(I28
I14
I01
tp1339
a(I47
I26
I01
tp1340
a(I19
I80
I00
tp1341
a(I82
I21
I01
tp1342
a(I21
I76
I00
tp1343
a(I52
I39
I01
tp1344
a(I19
I80
I01
tp1345
a(I21
I76
I01
tp1346
a(I21
I13
I00
tp1347
a(I48
I12
I00
tp1348
a(I48
I40
I00
tp1349
a(I4
I5
I00
tp1350
a(I48
I12
I01
tp1351
a(I48
I40
I01
tp1352
a(I21
I13
I01
tp1353
a(I38
I79
I00
tp1354
a(I30
I76
I00
tp1355
a(I47
I12
I00
tp1356
a(I47
I40
I00
tp1357
a(I4
I5
I01
tp1358
a(I38
I79
I01
tp1359
a(I79
I46
I00
tp1360
a(I30
I76
I01
tp1361
a(I30
I13
I00
tp1362
a(I47
I40
I01
tp1363
a(I47
I12
I01
tp1364
a(I25
I76
I00
tp1365
a(I39
I73
I00
tp1366
a(I39
I29
I00
tp1367
a(I39
I41
I00
tp1368
a(I57
I49
I00
tp1369
a(I57
I24
I00
tp1370
a(I79
I46
I01
tp1371
a(I30
I13
I01
tp1372
a(I39
I29
I01
tp1373
a(I39
I73
I01
tp1374
a(I39
I41
I01
tp1375
a(I81
I47
I00
tp1376
a(I25
I76
I01
tp1377
a(I25
I13
I00
tp1378
a(I57
I49
I01
tp1379
a(I57
I24
I01
tp1380
a(I55
I19
I00
tp1381
a(I79
I72
I00
tp1382
a(I40
I33
I00
tp1383
a(I12
I33
I00
tp1384
a(I81
I47
I01
tp1385
a(I40
I44
I00
tp1386
a(I12
I44
I00
tp1387
a(I25
I13
I01
tp1388
a(I55
I19
I01
tp1389
a(I79
I22
I00
tp1390
a(I83
I41
I00
tp1391
a(I83
I73
I00
tp1392
a(I83
I29
I00
tp1393
a(I79
I72
I01
tp1394
a(I81
I48
I00
tp1395
a(I40
I33
I01
tp1396
a(I12
I33
I01
tp1397
a(I82
I3
I00
tp1398
a(I79
I26
I00
tp1399
a(I12
I44
I01
tp1400
a(I40
I44
I01
tp1401
a(I79
I22
I01
tp1402
a(I83
I73
I01
tp1403
a(I83
I41
I01
tp1404
a(I83
I29
I01
tp1405
a(I81
I48
I01
tp1406
a(I82
I3
I01
tp1407
a(I79
I26
I01
tp1408
a(I23
I4
I00
tp1409
a(I39
I50
I00
tp1410
a(I39
I51
I00
tp1411
a(I23
I4
I01
tp1412
a(I26
I33
I00
tp1413
a(I11
I49
I00
tp1414
a(I24
I28
I00
tp1415
a(I42
I4
I00
tp1416
a(I49
I28
I00
tp1417
a(I11
I24
I00
tp1418
a(I22
I33
I00
tp1419
a(I26
I44
I00
tp1420
a(I39
I50
I01
tp1421
a(I39
I51
I01
tp1422
a(I38
I47
I00
tp1423
a(I48
I25
I00
tp1424
a(I22
I44
I00
tp1425
a(I26
I33
I01
tp1426
a(I11
I49
I01
tp1427
a(I11
I24
I01
tp1428
a(I79
I12
I00
tp1429
a(I79
I40
I00
tp1430
a(I24
I28
I01
tp1431
a(I49
I28
I01
tp1432
a(I72
I33
I00
tp1433
a(I42
I4
I01
tp1434
a(I22
I33
I01
tp1435
a(I26
I44
I01
tp1436
a(I38
I47
I01
tp1437
a(I48
I25
I01
tp1438
a(I72
I44
I00
tp1439
a(I22
I44
I01
tp1440
a(I79
I12
I01
tp1441
a(I48
I30
I00
tp1442
a(I79
I40
I01
tp1443
a(I83
I50
I00
tp1444
a(I83
I51
I00
tp1445
a(I72
I33
I01
tp1446
a(I38
I48
I00
tp1447
a(I47
I25
I00
tp1448
a(I56
I80
I00
tp1449
a(I72
I44
I01
tp1450
a(I32
I4
I00
tp1451
a(I49
I45
I00
tp1452
a(I24
I45
I00
tp1453
a(I48
I30
I01
tp1454
a(I83
I51
I01
tp1455
a(I83
I50
I01
tp1456
a(I38
I48
I01
tp1457
a(I56
I80
I01
tp1458
a(I46
I33
I00
tp1459
a(I47
I25
I01
tp1460
a(I40
I76
I00
tp1461
a(I12
I76
I00
tp1462
a(I47
I30
I00
tp1463
a(I46
I44
I00
tp1464
a(I27
I4
I00
tp1465
a(I49
I45
I01
tp1466
a(I24
I45
I01
tp1467
a(I32
I4
I01
tp1468
a(I46
I33
I01
tp1469
a(I52
I79
I00
tp1470
a(I75
I14
I00
tp1471
a(I12
I76
I01
tp1472
a(I40
I76
I01
tp1473
a(I47
I30
I01
tp1474
a(I12
I13
I00
tp1475
a(I40
I13
I00
tp1476
a(I48
I21
I00
tp1477
a(I74
I4
I00
tp1478
a(I46
I44
I01
tp1479
a(I27
I4
I01
tp1480
a(I3
I75
I00
tp1481
a(I52
I79
I01
tp1482
a(I75
I14
I01
tp1483
a(I48
I21
I01
tp1484
a(I40
I13
I01
tp1485
a(I12
I13
I01
tp1486
a(I77
I4
I00
tp1487
a(I74
I4
I01
tp1488
a(I3
I75
I01
tp1489
a(I47
I21
I00
tp1490
a(I77
I4
I01
tp1491
a(I47
I21
I01
tp1492
a(I26
I76
I00
tp1493
a(I22
I76
I00
tp1494
a(I39
I46
I00
tp1495
a(I26
I76
I01
tp1496
a(I31
I4
I00
tp1497
a(I26
I13
I00
tp1498
a(I72
I76
I00
tp1499
a(I80
I83
I00
tp1500
a(I22
I76
I01
tp1501
a(I22
I13
I00
tp1502
a(I39
I46
I01
tp1503
a(I31
I4
I01
tp1504
a(I20
I24
I00
tp1505
a(I20
I49
I00
tp1506
a(I26
I13
I01
tp1507
a(I80
I83
I01
tp1508
a(I72
I76
I01
tp1509
a(I72
I13
I00
tp1510
a(I22
I13
I01
tp1511
a(I20
I49
I01
tp1512
a(I20
I24
I01
tp1513
a(I79
I25
I00
tp1514
a(I39
I72
I00
tp1515
a(I46
I76
I00
tp1516
a(I83
I46
I00
tp1517
a(I72
I13
I01
tp1518
a(I79
I25
I01
tp1519
a(I39
I72
I01
tp1520
a(I39
I22
I00
tp1521
a(I80
I39
I00
tp1522
a(I24
I31
I00
tp1523
a(I49
I31
I00
tp1524
a(I79
I30
I00
tp1525
a(I37
I5
I01
tp1526
a(I19
I52
I00
tp1527
a(I83
I46
I01
tp1528
a(I39
I26
I00
tp1529
a(I46
I76
I01
tp1530
a(I50
I33
I00
tp1531
a(I51
I33
I00
tp1532
a(I46
I13
I00
tp1533
a(I80
I39
I01
tp1534
a(I39
I22
I01
tp1535
a(I24
I31
I01
tp1536
a(I49
I31
I01
tp1537
a(I81
I82
I00
tp1538
a(I19
I52
I01
tp1539
a(I52
I47
I00
tp1540
a(I51
I44
I00
tp1541
a(I50
I44
I00
tp1542
a(I79
I30
I01
tp1543
a(I48
I3
I00
tp1544
a(I39
I26
I01
tp1545
a(I83
I72
I00
tp1546
a(I51
I33
I01
tp1547
a(I50
I33
I01
tp1548
a(I46
I13
I01
tp1549
a(I21
I75
I00
tp1550
a(I81
I82
I01
tp1551
a(I52
I47
I01
tp1552
a(I48
I3
I01
tp1553
a(I51
I44
I01
tp1554
a(I50
I44
I01
tp1555
a(I83
I72
I01
tp1556
a(I83
I22
I00
tp1557
a(I21
I75
I01
tp1558
a(I52
I48
I00
tp1559
a(I47
I3
I00
tp1560
a(I49
I77
I00
tp1561
a(I24
I77
I00
tp1562
a(I83
I26
I00
tp1563
a(I79
I21
I00
tp1564
a(I83
I22
I01
tp1565
a(I52
I48
I01
tp1566
a(I47
I3
I01
tp1567
a(I83
I26
I01
tp1568
a(I24
I77
I01
tp1569
a(I49
I77
I01
tp1570
a(I24
I74
I00
tp1571
a(I49
I74
I00
tp1572
a(I79
I21
I01
tp1573
a(I30
I75
I00
tp1574
a(I39
I12
I00
tp1575
a(I39
I40
I00
tp1576
a(I49
I74
I01
tp1577
a(I24
I74
I01
tp1578
a(I24
I27
I00
tp1579
a(I49
I27
I00
tp1580
a(I39
I40
I01
tp1581
a(I39
I12
I01
tp1582
a(I30
I75
I01
tp1583
a(I24
I27
I01
tp1584
a(I49
I27
I01
tp1585
a(I45
I4
I00
tp1586
a(I24
I32
I00
tp1587
a(I49
I32
I00
tp1588
a(I25
I75
I00
tp1589
a(I73
I33
I00
tp1590
a(I41
I33
I00
tp1591
a(I29
I33
I00
tp1592
a(I82
I24
I00
tp1593
a(I82
I49
I00
tp1594
a(I24
I32
I01
tp1595
a(I49
I32
I01
tp1596
a(I38
I82
I00
tp1597
a(I45
I4
I01
tp1598
a(I25
I75
I01
tp1599
a(I41
I44
I00
tp1600
a(I29
I44
I00
tp1601
a(I73
I44
I00
tp1602
a(I83
I12
I00
tp1603
a(I83
I40
I00
tp1604
a(I41
I33
I01
tp1605
a(I29
I33
I01
tp1606
a(I73
I33
I01
tp1607
a(I82
I24
I01
tp1608
a(I82
I49
I01
tp1609
a(I38
I82
I01
tp1610
a(I41
I44
I01
tp1611
a(I29
I44
I01
tp1612
a(I73
I44
I01
tp1613
a(I83
I40
I01
tp1614
a(I83
I12
I01
tp1615
a(I50
I76
I00
tp1616
a(I51
I76
I00
tp1617
a(I49
I42
I00
tp1618
a(I24
I42
I00
tp1619
a(I28
I4
I00
tp1620
a(I50
I76
I01
tp1621
a(I51
I76
I01
tp1622
a(I24
I42
I01
tp1623
a(I49
I42
I01
tp1624
a(I28
I4
I01
tp1625
a(I81
I20
I00
tp1626
a(I50
I13
I00
tp1627
a(I51
I13
I00
tp1628
a(I3
I28
I00
tp1629
a(I37
I5
I00
tp1630
a(I24
I23
I00
tp1631
a(I49
I23
I00
tp1632
a(I81
I20
I01
tp1633
a(I51
I13
I01
tp1634
a(I50
I13
I01
tp1635
a(I3
I28
I01
tp1636
a(I49
I23
I01
tp1637
a(I24
I23
I01
tp1638
a(I79
I3
I00
tp1639
a(I79
I3
I01
tp1640
a(I14
I5
I00
tp1641
a(I19
I38
I00
tp1642
a(I3
I45
I00
tp1643
a(I56
I52
I00
tp1644
a(I19
I38
I01
tp1645
a(I14
I5
I01
tp1646
a(I3
I45
I01
tp1647
a(I56
I52
I01
tp1648
a(I29
I76
I00
tp1649
a(I41
I76
I00
tp1650
a(I73
I76
I00
tp1651
a(I39
I25
I00
tp1652
a(I78
I33
I00
tp1653
a(I39
I25
I01
tp1654
a(I29
I76
I01
tp1655
a(I73
I76
I01
tp1656
a(I41
I76
I01
tp1657
a(I80
I79
I00
tp1658
a(I38
I20
I00
tp1659
a(I13
I14
I00
tp1660
a(I78
I44
I00
tp1661
a(I41
I13
I00
tp1662
a(I73
I13
I00
tp1663
a(I29
I13
I00
tp1664
a(I40
I75
I00
tp1665
a(I12
I75
I00
tp1666
a(I39
I30
I00
tp1667
a(I78
I33
I01
tp1668
a(I80
I79
I01
tp1669
a(I38
I20
I01
tp1670
a(I78
I44
I01
tp1671
a(I13
I14
I01
tp1672
a(I41
I13
I01
tp1673
a(I73
I13
I01
tp1674
a(I29
I13
I01
tp1675
a(I39
I30
I01
tp1676
a(I12
I75
I01
tp1677
a(I40
I75
I01
tp1678
a(I76
I14
I00
tp1679
a(I83
I25
I00
tp1680
a(I76
I14
I01
tp1681
a(I83
I25
I01
tp1682
a(I21
I28
I00
tp1683
a(I83
I30
I00
tp1684
a(I19
I81
I00
tp1685
a(I39
I21
I00
tp1686
a(I21
I28
I01
tp1687
a(I19
I81
I01
tp1688
a(I83
I30
I01
tp1689
a(I52
I82
I00
tp1690
a(I39
I21
I01
tp1691
a(I81
I11
I00
tp1692
a(I52
I82
I01
tp1693
a(I26
I75
I00
tp1694
a(I81
I11
I01
tp1695
a(I22
I75
I00
tp1696
a(I26
I75
I01
tp1697
a(I30
I28
I00
tp1698
a(I83
I21
I00
tp1699
a(I22
I75
I01
tp1700
a(I21
I45
I00
tp1701
a(I72
I75
I00
tp1702
a(I3
I31
I00
tp1703
a(I30
I28
I01
tp1704
a(I83
I21
I01
tp1705
a(I21
I45
I01
tp1706
a(I72
I75
I01
tp1707
a(I25
I28
I00
tp1708
a(I3
I31
I01
tp1709
a(I78
I76
I00
tp1710
a(I48
I49
I00
tp1711
a(I48
I24
I00
tp1712
a(I25
I28
I01
tp1713
a(I46
I75
I00
tp1714
a(I78
I76
I01
tp1715
a(I48
I49
I01
tp1716
a(I48
I24
I01
tp1717
a(I80
I47
I00
tp1718
a(I30
I45
I00
tp1719
a(I44
I14
I00
tp1720
a(I78
I13
I00
tp1721
a(I46
I75
I01
tp1722
a(I80
I47
I01
tp1723
a(I47
I49
I00
tp1724
a(I33
I14
I00
tp1725
a(I47
I24
I00
tp1726
a(I3
I77
I00
tp1727
a(I30
I45
I01
tp1728
a(I78
I13
I01
tp1729
a(I44
I14
I01
tp1730
a(I75
I4
I00
tp1731
a(I38
I11
I00
tp1732
a(I25
I45
I00
tp1733
a(I47
I24
I01
tp1734
a(I47
I49
I01
tp1735
a(I3
I77
I01
tp1736
a(I81
I57
I00
tp1737
a(I80
I48
I00
tp1738
a(I33
I14
I01
tp1739
a(I56
I38
I00
tp1740
a(I3
I74
I00
tp1741
a(I38
I11
I01
tp1742
a(I75
I4
I01
tp1743
a(I81
I57
I01
tp1744
a(I25
I45
I01
tp1745
a(I80
I48
I01
tp1746
a(I56
I38
I01
tp1747
a(I24
I78
I00
tp1748
a(I49
I78
I00
tp1749
a(I3
I74
I01
tp1750
a(I3
I27
I00
tp1751
a(I39
I3
I00
tp1752
a(I49
I78
I01
tp1753
a(I24
I78
I01
tp1754
a(I3
I27
I01
tp1755
a(I39
I3
I01
tp1756
a(I3
I32
I00
tp1757
a(I52
I20
I00
tp1758
a(I3
I32
I01
tp1759
a(I52
I20
I01
tp1760
a(I83
I3
I00
tp1761
a(I83
I3
I01
tp1762
a(I21
I31
I00
tp1763
a(I37
I56
I00
tp1764
a(I3
I42
I00
tp1765
a(I37
I56
I01
tp1766
a(I21
I31
I01
tp1767
a(I23
I33
I00
tp1768
a(I38
I57
I00
tp1769
a(I3
I42
I01
tp1770
a(I56
I81
I00
tp1771
a(I23
I44
I00
tp1772
a(I23
I33
I01
tp1773
a(I38
I57
I01
tp1774
a(I56
I81
I01
tp1775
a(I3
I23
I00
tp1776
a(I23
I44
I01
tp1777
a(I40
I28
I00
tp1778
a(I12
I28
I00
tp1779
a(I42
I33
I00
tp1780
a(I57
I83
I00
tp1781
a(I50
I75
I00
tp1782
a(I51
I75
I00
tp1783
a(I3
I23
I01
tp1784
a(I12
I28
I01
tp1785
a(I40
I28
I01
tp1786
a(I30
I31
I00
tp1787
a(I42
I44
I00
tp1788
a(I42
I33
I01
tp1789
a(I21
I77
I00
tp1790
a(I57
I83
I01
tp1791
a(I79
I49
I00
tp1792
a(I79
I24
I00
tp1793
a(I50
I75
I01
tp1794
a(I51
I75
I01
tp1795
a(I30
I31
I01
tp1796
a(I42
I44
I01
tp1797
a(I21
I77
I01
tp1798
a(I79
I24
I01
tp1799
a(I79
I49
I01
tp1800
a(I21
I74
I00
tp1801
a(I25
I31
I00
tp1802
a(I21
I74
I01
tp1803
a(I49
I29
I00
tp1804
a(I49
I73
I00
tp1805
a(I24
I73
I00
tp1806
a(I49
I41
I00
tp1807
a(I24
I41
I00
tp1808
a(I24
I29
I00
tp1809
a(I25
I31
I01
tp1810
a(I21
I27
I00
tp1811
a(I57
I39
I00
tp1812
a(I12
I45
I00
tp1813
a(I40
I45
I00
tp1814
a(I32
I33
I00
tp1815
a(I49
I41
I01
tp1816
a(I49
I29
I01
tp1817
a(I24
I73
I01
tp1818
a(I24
I41
I01
tp1819
a(I24
I29
I01
tp1820
a(I49
I73
I01
tp1821
a(I21
I27
I01
tp1822
a(I57
I39
I01
tp1823
a(I30
I77
I00
tp1824
a(I12
I45
I01
tp1825
a(I40
I45
I01
tp1826
a(I32
I44
I00
tp1827
a(I32
I33
I01
tp1828
a(I21
I32
I00
tp1829
a(I27
I33
I00
tp1830
a(I26
I28
I00
tp1831
a(I30
I77
I01
tp1832
a(I32
I44
I01
tp1833
a(I21
I32
I01
tp1834
a(I30
I74
I00
tp1835
a(I27
I44
I00
tp1836
a(I27
I33
I01
tp1837
a(I22
I28
I00
tp1838
a(I26
I28
I01
tp1839
a(I74
I33
I00
tp1840
a(I25
I77
I00
tp1841
a(I30
I74
I01
tp1842
a(I27
I44
I01
tp1843
a(I22
I28
I01
tp1844
a(I52
I11
I00
tp1845
a(I30
I27
I00
tp1846
a(I25
I77
I01
tp1847
a(I74
I44
I00
tp1848
a(I72
I28
I00
tp1849
a(I74
I33
I01
tp1850
a(I77
I33
I00
tp1851
a(I25
I74
I00
tp1852
a(I52
I11
I01
tp1853
a(I30
I27
I01
tp1854
a(I73
I75
I00
tp1855
a(I41
I75
I00
tp1856
a(I29
I75
I00
tp1857
a(I11
I83
I00
tp1858
a(I72
I28
I01
tp1859
a(I74
I44
I01
tp1860
a(I30
I32
I00
tp1861
a(I25
I74
I01
tp1862
a(I77
I44
I00
tp1863
a(I77
I33
I01
tp1864
a(I23
I76
I00
tp1865
a(I21
I42
I00
tp1866
a(I11
I83
I01
tp1867
a(I29
I75
I01
tp1868
a(I41
I75
I01
tp1869
a(I73
I75
I01
tp1870
a(I25
I27
I00
tp1871
a(I30
I32
I01
tp1872
a(I26
I45
I00
tp1873
a(I77
I44
I01
tp1874
a(I21
I42
I01
tp1875
a(I23
I76
I01
tp1876
a(I25
I27
I01
tp1877
a(I22
I45
I00
tp1878
a(I46
I28
I00
tp1879
a(I26
I45
I01
tp1880
a(I23
I13
I00
tp1881
a(I25
I32
I00
tp1882
a(I42
I76
I00
tp1883
a(I21
I23
I00
tp1884
a(I22
I45
I01
tp1885
a(I49
I50
I00
tp1886
a(I49
I51
I00
tp1887
a(I24
I51
I00
tp1888
a(I24
I50
I00
tp1889
a(I46
I28
I01
tp1890
a(I25
I32
I01
tp1891
a(I23
I13
I01
tp1892
a(I72
I45
I00
tp1893
a(I21
I23
I01
tp1894
a(I42
I76
I01
tp1895
a(I11
I39
I00
tp1896
a(I24
I51
I01
tp1897
a(I49
I51
I01
tp1898
a(I49
I50
I01
tp1899
a(I24
I50
I01
tp1900
a(I31
I33
I00
tp1901
a(I72
I45
I01
tp1902
a(I11
I39
I01
tp1903
a(I42
I13
I00
tp1904
a(I30
I42
I00
tp1905
a(I31
I33
I01
tp1906
a(I31
I44
I00
tp1907
a(I80
I82
I00
tp1908
a(I55
I37
I00
tp1909
a(I42
I13
I01
tp1910
a(I30
I42
I01
tp1911
a(I55
I37
I01
tp1912
a(I31
I44
I01
tp1913
a(I80
I82
I01
tp1914
a(I46
I45
I00
tp1915
a(I25
I42
I00
tp1916
a(I37
I19
I00
tp1917
a(I30
I23
I00
tp1918
a(I32
I76
I00
tp1919
a(I37
I19
I01
tp1920
a(I46
I45
I01
tp1921
a(I52
I57
I00
tp1922
a(I25
I42
I01
tp1923
a(I30
I23
I01
tp1924
a(I32
I76
I01
tp1925
a(I12
I31
I00
tp1926
a(I40
I31
I00
tp1927
a(I52
I57
I01
tp1928
a(I27
I76
I00
tp1929
a(I32
I13
I00
tp1930
a(I25
I23
I00
tp1931
a(I12
I31
I01
tp1932
a(I40
I31
I01
tp1933
a(I27
I76
I01
tp1934
a(I25
I23
I01
tp1935
a(I32
I13
I01
tp1936
a(I74
I76
I00
tp1937
a(I27
I13
I00
tp1938
a(I74
I76
I01
tp1939
a(I27
I13
I01
tp1940
a(I77
I76
I00
tp1941
a(I74
I13
I00
tp1942
a(I77
I76
I01
tp1943
a(I12
I77
I00
tp1944
a(I40
I77
I00
tp1945
a(I78
I75
I00
tp1946
a(I74
I13
I01
tp1947
a(I77
I13
I00
tp1948
a(I12
I77
I01
tp1949
a(I40
I77
I01
tp1950
a(I78
I75
I01
tp1951
a(I40
I74
I00
tp1952
a(I12
I74
I00
tp1953
a(I77
I13
I01
tp1954
a(I3
I78
I00
tp1955
a(I13
I4
I00
tp1956
a(I26
I31
I00
tp1957
a(I20
I83
I00
tp1958
a(I40
I74
I01
tp1959
a(I12
I74
I01
tp1960
a(I3
I78
I01
tp1961
a(I39
I24
I00
tp1962
a(I39
I49
I00
tp1963
a(I13
I4
I01
tp1964
a(I22
I31
I00
tp1965
a(I20
I83
I01
tp1966
a(I26
I31
I01
tp1967
a(I12
I27
I00
tp1968
a(I40
I27
I00
tp1969
a(I39
I49
I01
tp1970
a(I39
I24
I01
tp1971
a(I31
I76
I00
tp1972
a(I50
I28
I00
tp1973
a(I51
I28
I00
tp1974
a(I22
I31
I01
tp1975
a(I76
I4
I00
tp1976
a(I12
I27
I01
tp1977
a(I40
I27
I01
tp1978
a(I72
I31
I00
tp1979
a(I51
I28
I01
tp1980
a(I50
I28
I01
tp1981
a(I31
I76
I01
tp1982
a(I49
I46
I00
tp1983
a(I24
I46
I00
tp1984
a(I76
I4
I01
tp1985
a(I12
I32
I00
tp1986
a(I40
I32
I00
tp1987
a(I45
I33
I00
tp1988
a(I72
I31
I01
tp1989
a(I49
I46
I01
tp1990
a(I24
I46
I01
tp1991
a(I31
I13
I00
tp1992
a(I40
I32
I01
tp1993
a(I12
I32
I01
tp1994
a(I45
I33
I01
tp1995
a(I57
I79
I00
tp1996
a(I80
I20
I00
tp1997
a(I45
I44
I00
tp1998
a(I20
I39
I00
tp1999
a(I31
I13
I01
tp2000
a(I57
I79
I01
tp2001
a(I80
I20
I01
tp2002
a(I45
I44
I01
tp2003
a(I26
I77
I00
tp2004
a(I83
I49
I00
tp2005
a(I83
I24
I00
tp2006
a(I20
I39
I01
tp2007
a(I22
I77
I00
tp2008
a(I83
I49
I01
tp2009
a(I83
I24
I01
tp2010
a(I26
I77
I01
tp2011
a(I46
I31
I00
tp2012
a(I49
I72
I00
tp2013
a(I24
I72
I00
tp2014
a(I51
I45
I00
tp2015
a(I50
I45
I00
tp2016
a(I22
I77
I01
tp2017
a(I26
I74
I00
tp2018
a(I46
I31
I01
tp2019
a(I24
I72
I01
tp2020
a(I49
I72
I01
tp2021
a(I72
I77
I00
tp2022
a(I50
I45
I01
tp2023
a(I51
I45
I01
tp2024
a(I22
I74
I00
tp2025
a(I26
I74
I01
tp2026
a(I24
I22
I00
tp2027
a(I49
I22
I00
tp2028
a(I12
I42
I00
tp2029
a(I40
I42
I00
tp2030
a(I28
I33
I00
tp2031
a(I72
I77
I01
tp2032
a(I22
I74
I01
tp2033
a(I26
I27
I00
tp2034
a(I49
I22
I01
tp2035
a(I24
I22
I01
tp2036
a(I49
I26
I00
tp2037
a(I24
I26
I00
tp2038
a(I12
I42
I01
tp2039
a(I40
I42
I01
tp2040
a(I28
I33
I01
tp2041
a(I28
I44
I00
tp2042
a(I72
I74
I00
tp2043
a(I26
I27
I01
tp2044
a(I22
I27
I00
tp2045
a(I24
I26
I01
tp2046
a(I49
I26
I01
tp2047
a(I72
I74
I01
tp2048
a(I28
I44
I01
tp2049
a(I22
I27
I01
tp2050
a(I26
I32
I00
tp2051
a(I40
I23
I00
tp2052
a(I12
I23
I00
tp2053
a(I72
I27
I00
tp2054
a(I26
I32
I01
tp2055
a(I22
I32
I00
tp2056
a(I46
I77
I00
tp2057
a(I12
I23
I01
tp2058
a(I40
I23
I01
tp2059
a(I29
I28
I00
tp2060
a(I73
I28
I00
tp2061
a(I41
I28
I00
tp2062
a(I72
I27
I01
tp2063
a(I22
I32
I01
tp2064
a(I46
I77
I01
tp2065
a(I41
I28
I01
tp2066
a(I29
I28
I01
tp2067
a(I73
I28
I01
tp2068
a(I72
I32
I00
tp2069
a(I46
I74
I00
tp2070
a(I72
I32
I01
tp2071
a(I46
I74
I01
tp2072
a(I21
I78
I00
tp2073
a(I11
I79
I00
tp2074
a(I3
I29
I00
tp2075
a(I3
I73
I00
tp2076
a(I3
I41
I00
tp2077
a(I46
I27
I00
tp2078
a(I44
I4
I00
tp2079
a(I21
I78
I01
tp2080
a(I11
I79
I01
tp2081
a(I82
I83
I00
tp2082
a(I3
I29
I01
tp2083
a(I3
I73
I01
tp2084
a(I3
I41
I01
tp2085
a(I26
I42
I00
tp2086
a(I46
I27
I01
tp2087
a(I44
I4
I01
tp2088
a(I33
I4
I00
tp2089
a(I82
I83
I01
tp2090
a(I49
I12
I00
tp2091
a(I24
I12
I00
tp2092
a(I49
I40
I00
tp2093
a(I24
I40
I00
tp2094
a(I26
I42
I01
tp2095
a(I22
I42
I00
tp2096
a(I46
I32
I00
tp2097
a(I33
I4
I01
tp2098
a(I29
I45
I00
tp2099
a(I73
I45
I00
tp2100
a(I41
I45
I00
tp2101
a(I24
I40
I01
tp2102
a(I49
I40
I01
tp2103
a(I24
I12
I01
tp2104
a(I49
I12
I01
tp2105
a(I22
I42
I01
tp2106
a(I45
I76
I00
tp2107
a(I46
I32
I01
tp2108
a(I29
I45
I01
tp2109
a(I73
I45
I01
tp2110
a(I41
I45
I01
tp2111
a(I45
I76
I01
tp2112
a(I72
I42
I00
tp2113
a(I26
I23
I00
tp2114
a(I72
I42
I01
tp2115
a(I26
I23
I01
tp2116
a(I22
I23
I00
tp2117
a(I57
I47
I00
tp2118
a(I30
I78
I00
tp2119
a(I45
I13
I00
tp2120
a(I57
I47
I01
tp2121
a(I22
I23
I01
tp2122
a(I30
I78
I01
tp2123
a(I82
I39
I00
tp2124
a(I45
I13
I01
tp2125
a(I72
I23
I00
tp2126
a(I82
I39
I01
tp2127
a(I72
I23
I01
tp2128
a(I80
I11
I00
tp2129
a(I25
I78
I00
tp2130
a(I46
I42
I00
tp2131
a(I81
I80
I00
tp2132
a(I57
I48
I00
tp2133
a(I80
I11
I01
tp2134
a(I25
I78
I01
tp2135
a(I46
I42
I01
tp2136
a(I28
I76
I00
tp2137
a(I51
I31
I00
tp2138
a(I50
I31
I00
tp2139
a(I81
I80
I01
tp2140
a(I57
I48
I01
tp2141
a(I51
I31
I01
tp2142
a(I50
I31
I01
tp2143
a(I28
I76
I01
tp2144
a(I46
I23
I00
tp2145
a(I28
I13
I00
tp2146
a(I3
I50
I00
tp2147
a(I3
I51
I00
tp2148
a(I46
I23
I01
tp2149
a(I28
I13
I01
tp2150
a(I3
I50
I01
tp2151
a(I3
I51
I01
tp2152
a(I23
I75
I00
tp2153
a(I23
I75
I01
tp2154
a(I78
I28
I00
tp2155
a(I78
I28
I01
tp2156
a(I50
I77
I00
tp2157
a(I51
I77
I00
tp2158
a(I51
I77
I01
tp2159
a(I50
I77
I01
tp2160
a(I42
I75
I00
tp2161
a(I42
I75
I01
tp2162
a(I21
I41
I00
tp2163
a(I51
I74
I00
tp2164
a(I50
I74
I00
tp2165
a(I21
I29
I00
tp2166
a(I11
I47
I00
tp2167
a(I21
I73
I00
tp2168
a(I11
I47
I01
tp2169
a(I21
I29
I01
tp2170
a(I21
I73
I01
tp2171
a(I21
I41
I01
tp2172
a(I50
I74
I01
tp2173
a(I51
I74
I01
tp2174
a(I50
I27
I00
tp2175
a(I51
I27
I00
tp2176
a(I51
I27
I01
tp2177
a(I50
I27
I01
tp2178
a(I20
I79
I00
tp2179
a(I80
I57
I00
tp2180
a(I38
I80
I00
tp2181
a(I78
I45
I00
tp2182
a(I11
I48
I00
tp2183
a(I20
I79
I01
tp2184
a(I80
I57
I01
tp2185
a(I41
I31
I00
tp2186
a(I29
I31
I00
tp2187
a(I38
I80
I01
tp2188
a(I73
I31
I00
tp2189
a(I78
I45
I01
tp2190
a(I51
I32
I00
tp2191
a(I50
I32
I00
tp2192
a(I11
I48
I01
tp2193
a(I41
I31
I01
tp2194
a(I29
I31
I01
tp2195
a(I73
I31
I01
tp2196
a(I50
I32
I01
tp2197
a(I51
I32
I01
tp2198
a(I24
I25
I00
tp2199
a(I49
I25
I00
tp2200
a(I32
I75
I00
tp2201
a(I49
I25
I01
tp2202
a(I24
I25
I01
tp2203
a(I32
I75
I01
tp2204
a(I30
I73
I00
tp2205
a(I30
I41
I00
tp2206
a(I30
I29
I00
tp2207
a(I30
I29
I01
tp2208
a(I30
I73
I01
tp2209
a(I30
I41
I01
tp2210
a(I27
I75
I00
tp2211
a(I49
I30
I00
tp2212
a(I24
I30
I00
tp2213
a(I27
I75
I01
tp2214
a(I49
I30
I01
tp2215
a(I4
I14
I00
tp2216
a(I24
I30
I01
tp2217
a(I25
I41
I00
tp2218
a(I25
I29
I00
tp2219
a(I25
I73
I00
tp2220
a(I4
I14
I01
tp2221
a(I74
I75
I00
tp2222
a(I25
I41
I01
tp2223
a(I25
I29
I01
tp2224
a(I25
I73
I01
tp2225
a(I75
I33
I00
tp2226
a(I74
I75
I01
tp2227
a(I73
I77
I00
tp2228
a(I29
I77
I00
tp2229
a(I41
I77
I00
tp2230
a(I75
I33
I01
tp2231
a(I51
I42
I00
tp2232
a(I50
I42
I00
tp2233
a(I73
I77
I01
tp2234
a(I29
I77
I01
tp2235
a(I41
I77
I01
tp2236
a(I75
I44
I00
tp2237
a(I51
I42
I01
tp2238
a(I50
I42
I01
tp2239
a(I40
I78
I00
tp2240
a(I12
I78
I00
tp2241
a(I77
I75
I00
tp2242
a(I75
I44
I01
tp2243
a(I40
I78
I01
tp2244
a(I12
I78
I01
tp2245
a(I77
I75
I01
tp2246
a(I73
I74
I00
tp2247
a(I41
I74
I00
tp2248
a(I21
I50
I00
tp2249
a(I29
I74
I00
tp2250
a(I21
I51
I00
tp2251
a(I21
I51
I01
tp2252
a(I21
I50
I01
tp2253
a(I41
I74
I01
tp2254
a(I29
I74
I01
tp2255
a(I73
I74
I01
tp2256
a(I50
I23
I00
tp2257
a(I51
I23
I00
tp2258
a(I49
I21
I00
tp2259
a(I24
I21
I00
tp2260
a(I3
I46
I00
tp2261
a(I51
I23
I01
tp2262
a(I50
I23
I01
tp2263
a(I41
I27
I00
tp2264
a(I73
I27
I00
tp2265
a(I29
I27
I00
tp2266
a(I24
I21
I01
tp2267
a(I49
I21
I01
tp2268
a(I3
I46
I01
tp2269
a(I41
I27
I01
tp2270
a(I73
I27
I01
tp2271
a(I29
I27
I01
tp2272
a(I41
I32
I00
tp2273
a(I29
I32
I00
tp2274
a(I73
I32
I00
tp2275
a(I73
I32
I01
tp2276
a(I41
I32
I01
tp2277
a(I29
I32
I01
tp2278
a(I31
I75
I00
tp2279
a(I48
I83
I00
tp2280
a(I30
I51
I00
tp2281
a(I30
I50
I00
tp2282
a(I31
I75
I01
tp2283
a(I48
I83
I01
tp2284
a(I3
I72
I00
tp2285
a(I30
I50
I01
tp2286
a(I30
I51
I01
tp2287
a(I3
I72
I01
tp2288
a(I26
I78
I00
tp2289
a(I3
I22
I00
tp2290
a(I26
I78
I01
tp2291
a(I25
I50
I00
tp2292
a(I25
I51
I00
tp2293
a(I20
I47
I00
tp2294
a(I3
I22
I01
tp2295
a(I22
I78
I00
tp2296
a(I20
I47
I01
tp2297
a(I82
I79
I00
tp2298
a(I47
I83
I00
tp2299
a(I25
I51
I01
tp2300
a(I25
I50
I01
tp2301
a(I3
I26
I00
tp2302
a(I22
I78
I01
tp2303
a(I82
I79
I01
tp2304
a(I47
I83
I01
tp2305
a(I78
I31
I00
tp2306
a(I3
I26
I01
tp2307
a(I29
I42
I00
tp2308
a(I73
I42
I00
tp2309
a(I41
I42
I00
tp2310
a(I78
I31
I01
tp2311
a(I29
I42
I01
tp2312
a(I73
I42
I01
tp2313
a(I41
I42
I01
tp2314
a(I72
I78
I00
tp2315
a(I48
I39
I00
tp2316
a(I72
I78
I01
tp2317
a(I48
I39
I01
tp2318
a(I20
I48
I00
tp2319
a(I20
I48
I01
tp2320
a(I41
I23
I00
tp2321
a(I73
I23
I00
tp2322
a(I29
I23
I00
tp2323
a(I57
I82
I00
tp2324
a(I41
I23
I01
tp2325
a(I73
I23
I01
tp2326
a(I29
I23
I01
tp2327
a(I57
I82
I01
tp2328
a(I75
I76
I00
tp2329
a(I47
I39
I00
tp2330
a(I75
I76
I01
tp2331
a(I47
I39
I01
tp2332
a(I46
I78
I00
tp2333
a(I46
I78
I01
tp2334
a(I78
I77
I00
tp2335
a(I78
I77
I01
tp2336
a(I75
I13
I00
tp2337
a(I52
I80
I00
tp2338
a(I40
I73
I00
tp2339
a(I12
I29
I00
tp2340
a(I12
I41
I00
tp2341
a(I40
I29
I00
tp2342
a(I12
I73
I00
tp2343
a(I40
I41
I00
tp2344
a(I75
I13
I01
tp2345
a(I52
I80
I01
tp2346
a(I40
I73
I01
tp2347
a(I40
I29
I01
tp2348
a(I12
I29
I01
tp2349
a(I12
I41
I01
tp2350
a(I12
I73
I01
tp2351
a(I40
I41
I01
tp2352
a(I78
I74
I00
tp2353
a(I3
I12
I00
tp2354
a(I3
I40
I00
tp2355
a(I23
I28
I00
tp2356
a(I78
I74
I01
tp2357
a(I3
I40
I01
tp2358
a(I3
I12
I01
tp2359
a(I23
I28
I01
tp2360
a(I24
I3
I00
tp2361
a(I49
I3
I00
tp2362
a(I21
I46
I00
tp2363
a(I49
I3
I01
tp2364
a(I24
I3
I01
tp2365
a(I21
I46
I01
tp2366
a(I78
I27
I00
tp2367
a(I78
I27
I01
tp2368
a(I42
I28
I00
tp2369
a(I42
I28
I01
tp2370
a(I78
I32
I00
tp2371
a(I78
I32
I01
tp2372
a(I21
I72
I00
tp2373
a(I45
I75
I00
tp2374
a(I21
I72
I01
tp2375
a(I45
I75
I01
tp2376
a(I23
I45
I00
tp2377
a(I23
I45
I01
tp2378
a(I30
I46
I00
tp2379
a(I30
I46
I01
tp2380
a(I21
I22
I00
tp2381
a(I11
I82
I00
tp2382
a(I21
I22
I01
tp2383
a(I26
I29
I00
tp2384
a(I26
I73
I00
tp2385
a(I26
I41
I00
tp2386
a(I11
I82
I01
tp2387
a(I26
I29
I01
tp2388
a(I26
I73
I01
tp2389
a(I26
I41
I01
tp2390
a(I21
I26
I00
tp2391
a(I81
I52
I00
tp2392
a(I82
I47
I00
tp2393
a(I79
I83
I00
tp2394
a(I21
I26
I01
tp2395
a(I22
I29
I00
tp2396
a(I22
I41
I00
tp2397
a(I22
I73
I00
tp2398
a(I81
I52
I01
tp2399
a(I82
I47
I01
tp2400
a(I79
I83
I01
tp2401
a(I22
I29
I01
tp2402
a(I22
I41
I01
tp2403
a(I22
I73
I01
tp2404
a(I32
I28
I00
tp2405
a(I42
I45
I00
tp2406
a(I32
I28
I01
tp2407
a(I25
I46
I00
tp2408
a(I42
I45
I01
tp2409
a(I78
I42
I00
tp2410
a(I25
I46
I01
tp2411
a(I78
I42
I01
tp2412
a(I72
I73
I00
tp2413
a(I72
I41
I00
tp2414
a(I72
I29
I00
tp2415
a(I12
I51
I00
tp2416
a(I40
I50
I00
tp2417
a(I12
I50
I00
tp2418
a(I40
I51
I00
tp2419
a(I72
I41
I01
tp2420
a(I72
I29
I01
tp2421
a(I72
I73
I01
tp2422
a(I30
I72
I00
tp2423
a(I40
I50
I01
tp2424
a(I12
I50
I01
tp2425
a(I40
I51
I01
tp2426
a(I12
I51
I01
tp2427
a(I27
I28
I00
tp2428
a(I30
I72
I01
tp2429
a(I27
I28
I01
tp2430
a(I28
I75
I00
tp2431
a(I82
I48
I00
tp2432
a(I28
I75
I01
tp2433
a(I82
I48
I01
tp2434
a(I78
I23
I00
tp2435
a(I30
I22
I00
tp2436
a(I78
I23
I01
tp2437
a(I74
I28
I00
tp2438
a(I57
I20
I00
tp2439
a(I30
I22
I01
tp2440
a(I57
I20
I01
tp2441
a(I74
I28
I01
tp2442
a(I79
I39
I00
tp2443
a(I25
I72
I00
tp2444
a(I30
I26
I00
tp2445
a(I79
I39
I01
tp2446
a(I25
I72
I01
tp2447
a(I30
I26
I01
tp2448
a(I46
I41
I00
tp2449
a(I46
I73
I00
tp2450
a(I46
I29
I00
tp2451
a(I46
I29
I01
tp2452
a(I46
I41
I01
tp2453
a(I77
I28
I00
tp2454
a(I46
I73
I01
tp2455
a(I32
I45
I00
tp2456
a(I77
I28
I01
tp2457
a(I32
I45
I01
tp2458
a(I25
I22
I00
tp2459
a(I25
I22
I01
tp2460
a(I50
I78
I00
tp2461
a(I51
I78
I00
tp2462
a(I51
I78
I01
tp2463
a(I50
I78
I01
tp2464
a(I25
I26
I00
tp2465
a(I21
I12
I00
tp2466
a(I21
I40
I00
tp2467
a(I25
I26
I01
tp2468
a(I21
I12
I01
tp2469
a(I21
I40
I01
tp2470
a(I27
I45
I00
tp2471
a(I27
I45
I01
tp2472
a(I19
I56
I00
tp2473
a(I19
I56
I01
tp2474
a(I74
I45
I00
tp2475
a(I26
I51
I00
tp2476
a(I26
I50
I00
tp2477
a(I74
I45
I01
tp2478
a(I26
I51
I01
tp2479
a(I26
I50
I01
tp2480
a(I3
I25
I00
tp2481
a(I38
I52
I00
tp2482
a(I3
I25
I01
tp2483
a(I22
I51
I00
tp2484
a(I22
I50
I00
tp2485
a(I38
I52
I01
tp2486
a(I22
I51
I01
tp2487
a(I22
I50
I01
tp2488
a(I31
I28
I00
tp2489
a(I77
I45
I00
tp2490
a(I31
I28
I01
tp2491
a(I77
I45
I01
tp2492
a(I72
I51
I00
tp2493
a(I72
I50
I00
tp2494
a(I72
I51
I01
tp2495
a(I72
I50
I01
tp2496
a(I30
I12
I00
tp2497
a(I30
I40
I00
tp2498
a(I30
I12
I01
tp2499
a(I3
I30
I00
tp2500
a(I30
I40
I01
tp2501
a(I3
I30
I01
tp2502
a(I23
I31
I00
tp2503
a(I48
I79
I00
tp2504
a(I23
I31
I01
tp2505
a(I48
I79
I01
tp2506
a(I11
I20
I00
tp2507
a(I11
I20
I01
tp2508
a(I25
I40
I00
tp2509
a(I25
I12
I00
tp2510
a(I25
I12
I01
tp2511
a(I25
I40
I01
tp2512
a(I13
I33
I00
tp2513
a(I46
I51
I00
tp2514
a(I46
I50
I00
tp2515
a(I13
I33
I01
tp2516
a(I46
I50
I01
tp2517
a(I46
I51
I01
tp2518
a(I31
I45
I00
tp2519
a(I42
I31
I00
tp2520
a(I31
I45
I01
tp2521
a(I42
I31
I01
tp2522
a(I20
I82
I00
tp2523
a(I13
I44
I00
tp2524
a(I20
I82
I01
tp2525
a(I73
I78
I00
tp2526
a(I41
I78
I00
tp2527
a(I29
I78
I00
tp2528
a(I13
I44
I01
tp2529
a(I73
I78
I01
tp2530
a(I29
I78
I01
tp2531
a(I41
I78
I01
tp2532
a(I47
I79
I00
tp2533
a(I47
I79
I01
tp2534
a(I3
I21
I00
tp2535
a(I3
I21
I01
tp2536
a(I76
I33
I00
tp2537
a(I76
I33
I01
tp2538
a(I12
I46
I00
tp2539
a(I40
I46
I00
tp2540
a(I12
I46
I01
tp2541
a(I40
I46
I01
tp2542
a(I76
I44
I00
tp2543
a(I76
I44
I01
tp2544
a(I23
I77
I00
tp2545
a(I23
I77
I01
tp2546
a(I23
I74
I00
tp2547
a(I23
I74
I01
tp2548
a(I57
I11
I00
tp2549
a(I32
I31
I00
tp2550
a(I42
I77
I00
tp2551
a(I57
I11
I01
tp2552
a(I32
I31
I01
tp2553
a(I42
I77
I01
tp2554
a(I81
I38
I00
tp2555
a(I51
I73
I00
tp2556
a(I50
I73
I00
tp2557
a(I51
I41
I00
tp2558
a(I51
I29
I00
tp2559
a(I81
I38
I01
tp2560
a(I50
I41
I00
tp2561
a(I50
I29
I00
tp2562
a(I50
I73
I01
tp2563
a(I50
I41
I01
tp2564
a(I51
I73
I01
tp2565
a(I51
I29
I01
tp2566
a(I50
I29
I01
tp2567
a(I51
I41
I01
tp2568
a(I12
I72
I00
tp2569
a(I40
I72
I00
tp2570
a(I12
I72
I01
tp2571
a(I40
I72
I01
tp2572
a(I23
I27
I00
tp2573
a(I23
I27
I01
tp2574
a(I27
I31
I00
tp2575
a(I42
I74
I00
tp2576
a(I27
I31
I01
tp2577
a(I42
I74
I01
tp2578
a(I12
I22
I00
tp2579
a(I40
I22
I00
tp2580
a(I40
I22
I01
tp2581
a(I12
I22
I01
tp2582
a(I23
I32
I00
tp2583
a(I23
I32
I01
tp2584
a(I12
I26
I00
tp2585
a(I40
I26
I00
tp2586
a(I40
I26
I01
tp2587
a(I12
I26
I01
tp2588
a(I21
I25
I00
tp2589
a(I21
I25
I01
tp2590
a(I74
I31
I00
tp2591
a(I42
I27
I00
tp2592
a(I74
I31
I01
tp2593
a(I42
I27
I01
tp2594
a(I26
I46
I00
tp2595
a(I26
I46
I01
tp2596
a(I22
I46
I00
tp2597
a(I22
I46
I01
tp2598
a(I45
I28
I00
tp2599
a(I77
I31
I00
tp2600
a(I45
I28
I01
tp2601
a(I32
I77
I00
tp2602
a(I42
I32
I00
tp2603
a(I77
I31
I01
tp2604
a(I32
I77
I01
tp2605
a(I42
I32
I01
tp2606
a(I21
I30
I00
tp2607
a(I21
I30
I01
tp2608
a(I39
I83
I00
tp2609
a(I39
I83
I01
tp2610
a(I72
I46
I00
tp2611
a(I72
I46
I01
tp2612
a(I27
I77
I00
tp2613
a(I32
I74
I00
tp2614
a(I27
I77
I01
tp2615
a(I32
I74
I01
tp2616
a(I48
I47
I00
tp2617
a(I48
I47
I01
tp2618
a(I23
I42
I00
tp2619
a(I23
I42
I01
tp2620
a(I26
I72
I00
tp2621
a(I26
I72
I01
tp2622
a(I30
I25
I00
tp2623
a(I30
I25
I01
tp2624
a(I13
I76
I00
tp2625
a(I13
I76
I01
tp2626
a(I74
I77
I00
tp2627
a(I27
I74
I00
tp2628
a(I32
I27
I00
tp2629
a(I74
I77
I01
tp2630
a(I27
I74
I01
tp2631
a(I32
I27
I01
tp2632
a(I22
I72
I00
tp2633
a(I22
I72
I01
tp2634
a(I44
I33
I00
tp2635
a(I44
I33
I01
tp2636
a(I26
I22
I00
tp2637
a(I26
I22
I01
tp2638
a(I55
I5
I01
tp2639
a(I40
I12
I01
tp2640
a(I50
I50
I00
tp2641
a(I30
I30
I00
tp2642
a(I33
I33
I01
tp2643
a(I25
I25
I00
tp2644
a(I12
I40
I01
tp2645
a(I23
I23
I00
tp2646
a(I22
I22
I01
tp2647
a(I11
I11
I01
tp2648
a(I37
I37
I01
tp2649
a(I74
I74
I00
tp2650
a(I40
I40
I01
tp2651
a(I78
I78
I01
tp2652
a(I12
I12
I01
tp2653
a(I51
I50
I00
tp2654
a(I13
I13
I00
tp2655
a(I31
I31
I01
tp2656
a(I75
I75
I01
tp2657
a(I42
I42
I00
tp2658
a(I27
I27
I01
tp2659
a(I51
I51
I00
tp2660
a(I50
I51
I00
tp2661
a(I51
I51
I01
tp2662
a(I73
I41
I00
tp2663
a(I12
I40
I00
tp2664
a(I41
I29
I01
tp2665
a(I29
I29
I00
tp2666
a(I79
I79
I01
tp2667
a(I73
I73
I00
tp2668
a(I77
I77
I01
tp2669
a(I22
I22
I00
tp2670
a(I81
I81
I01
tp2671
a(I11
I11
I00
tp2672
a(I4
I4
I01
tp2673
a(I37
I37
I00
tp2674
a(I73
I29
I00
tp2675
a(I56
I56
I01
tp2676
a(I40
I40
I00
tp2677
a(I55
I55
I01
tp2678
a(I49
I49
I01
tp2679
a(I44
I44
I01
tp2680
a(I29
I41
I00
tp2681
a(I19
I19
I00
tp2682
a(I5
I5
I00
tp2683
a(I24
I24
I01
tp2684
a(I76
I76
I00
tp2685
a(I57
I57
I00
tp2686
a(I52
I52
I01
tp2687
a(I72
I72
I00
tp2688
a(I78
I78
I00
tp2689
a(I47
I47
I01
tp2690
a(I29
I29
I01
tp2691
a(I72
I72
I01
tp2692
a(I73
I73
I01
tp2693
a(I83
I83
I01
tp2694
a(I12
I12
I00
tp2695
a(I46
I46
I00
tp2696
a(I50
I50
I01
tp2697
a(I73
I29
I01
tp2698
a(I51
I50
I01
tp2699
a(I14
I14
I00
tp2700
a(I20
I20
I00
tp2701
a(I41
I73
I00
tp2702
a(I29
I41
I01
tp2703
a(I31
I31
I00
tp2704
a(I19
I19
I01
tp2705
a(I75
I75
I00
tp2706
a(I5
I5
I01
tp2707
a(I30
I30
I01
tp2708
a(I80
I80
I01
tp2709
a(I76
I76
I01
tp2710
a(I57
I57
I01
tp2711
a(I41
I41
I00
tp2712
a(I82
I82
I00
tp2713
a(I45
I45
I01
tp2714
a(I25
I25
I01
tp2715
a(I47
I47
I00
tp2716
a(I29
I73
I00
tp2717
a(I45
I45
I00
tp2718
a(I23
I23
I01
tp2719
a(I46
I46
I01
tp2720
a(I48
I48
I00
tp2721
a(I26
I26
I00
tp2722
a(I49
I24
I01
tp2723
a(I38
I38
I00
tp2724
a(I27
I27
I00
tp2725
a(I49
I24
I00
tp2726
a(I14
I14
I01
tp2727
a(I81
I81
I00
tp2728
a(I20
I20
I01
tp2729
a(I83
I83
I00
tp2730
a(I41
I73
I01
tp2731
a(I41
I41
I01
tp2732
a(I73
I41
I01
tp2733
a(I50
I51
I01
tp2734
a(I82
I82
I01
tp2735
a(I21
I21
I00
tp2736
a(I74
I74
I01
tp2737
a(I3
I3
I00
tp2738
a(I32
I32
I00
tp2739
a(I24
I49
I01
tp2740
a(I29
I73
I01
tp2741
a(I48
I48
I01
tp2742
a(I26
I26
I01
tp2743
a(I39
I39
I00
tp2744
a(I28
I28
I00
tp2745
a(I38
I38
I01
tp2746
a(I13
I13
I01
tp2747
a(I49
I49
I00
tp2748
a(I41
I29
I00
tp2749
a(I79
I79
I00
tp2750
a(I80
I80
I00
tp2751
a(I21
I21
I01
tp2752
a(I77
I77
I00
tp2753
a(I40
I12
I00
tp2754
a(I4
I4
I00
tp2755
a(I3
I3
I01
tp2756
a(I56
I56
I00
tp2757
a(I42
I42
I01
tp2758
a(I32
I32
I01
tp2759
a(I24
I49
I00
tp2760
a(I55
I55
I00
tp2761
a(I44
I44
I00
tp2762
a(I24
I24
I00
tp2763
a(I39
I39
I01
tp2764
a(I33
I33
I00
tp2765
a(I28
I28
I01
tp2766
a(I52
I52
I00
tp2767
a(I22
I26
I01
tp2768
a(I22
I26
I00
tp2769
a(I33
I44
I01
tp2770
a(I33
I44
I00
tp2771
a(I72
I22
I01
tp2772
a(I72
I22
I00
tp2773
a(I27
I32
I01
tp2774
a(I74
I27
I01
tp2775
a(I77
I74
I01
tp2776
a(I27
I32
I00
tp2777
a(I74
I27
I00
tp2778
a(I77
I74
I00
tp2779
a(I76
I13
I01
tp2780
a(I76
I13
I00
tp2781
a(I25
I30
I01
tp2782
a(I25
I30
I00
tp2783
a(I72
I26
I01
tp2784
a(I72
I26
I00
tp2785
a(I42
I23
I01
tp2786
a(I42
I23
I00
tp2787
a(I47
I48
I01
tp2788
a(I47
I48
I00
tp2789
a(I74
I32
I01
tp2790
a(I77
I27
I01
tp2791
a(I74
I32
I00
tp2792
a(I77
I27
I00
tp2793
a(I46
I72
I01
tp2794
a(I46
I72
I00
tp2795
a(I83
I39
I01
tp2796
a(I83
I39
I00
tp2797
a(I30
I21
I01
tp2798
a(I30
I21
I00
tp2799
a(I32
I42
I01
tp2800
a(I77
I32
I01
tp2801
a(I31
I77
I01
tp2802
a(I32
I42
I00
tp2803
a(I77
I32
I00
tp2804
a(I28
I45
I01
tp2805
a(I31
I77
I00
tp2806
a(I28
I45
I00
tp2807
a(I46
I22
I01
tp2808
a(I46
I22
I00
tp2809
a(I46
I26
I01
tp2810
a(I46
I26
I00
tp2811
a(I27
I42
I01
tp2812
a(I31
I74
I01
tp2813
a(I27
I42
I00
tp2814
a(I31
I74
I00
tp2815
a(I25
I21
I01
tp2816
a(I25
I21
I00
tp2817
a(I26
I40
I01
tp2818
a(I26
I12
I01
tp2819
a(I26
I40
I00
tp2820
a(I26
I12
I00
tp2821
a(I32
I23
I01
tp2822
a(I32
I23
I00
tp2823
a(I22
I12
I01
tp2824
a(I22
I40
I01
tp2825
a(I22
I12
I00
tp2826
a(I22
I40
I00
tp2827
a(I74
I42
I01
tp2828
a(I31
I27
I01
tp2829
a(I74
I42
I00
tp2830
a(I31
I27
I00
tp2831
a(I27
I23
I01
tp2832
a(I27
I23
I00
tp2833
a(I72
I12
I01
tp2834
a(I72
I40
I01
tp2835
a(I72
I12
I00
tp2836
a(I72
I40
I00
tp2837
a(I73
I51
I01
tp2838
a(I29
I51
I01
tp2839
a(I73
I50
I01
tp2840
a(I41
I50
I01
tp2841
a(I41
I51
I01
tp2842
a(I29
I50
I01
tp2843
a(I29
I51
I00
tp2844
a(I41
I51
I00
tp2845
a(I73
I50
I00
tp2846
a(I29
I50
I00
tp2847
a(I41
I50
I00
tp2848
a(I73
I51
I00
tp2849
a(I38
I81
I01
tp2850
a(I38
I81
I00
tp2851
a(I77
I42
I01
tp2852
a(I31
I32
I01
tp2853
a(I11
I57
I01
tp2854
a(I77
I42
I00
tp2855
a(I31
I32
I00
tp2856
a(I11
I57
I00
tp2857
a(I74
I23
I01
tp2858
a(I74
I23
I00
tp2859
a(I77
I23
I01
tp2860
a(I77
I23
I00
tp2861
a(I44
I76
I01
tp2862
a(I44
I76
I00
tp2863
a(I46
I12
I01
tp2864
a(I46
I40
I01
tp2865
a(I46
I12
I00
tp2866
a(I46
I40
I00
tp2867
a(I33
I76
I01
tp2868
a(I33
I76
I00
tp2869
a(I21
I3
I01
tp2870
a(I21
I3
I00
tp2871
a(I79
I47
I01
tp2872
a(I79
I47
I00
tp2873
a(I78
I29
I01
tp2874
a(I78
I73
I01
tp2875
a(I78
I41
I01
tp2876
a(I44
I13
I01
tp2877
a(I78
I41
I00
tp2878
a(I78
I73
I00
tp2879
a(I78
I29
I00
tp2880
a(I82
I20
I01
tp2881
a(I44
I13
I00
tp2882
a(I82
I20
I00
tp2883
a(I31
I42
I01
tp2884
a(I45
I31
I01
tp2885
a(I31
I42
I00
tp2886
a(I45
I31
I00
tp2887
a(I50
I46
I01
tp2888
a(I51
I46
I01
tp2889
a(I33
I13
I01
tp2890
a(I50
I46
I00
tp2891
a(I51
I46
I00
tp2892
a(I33
I13
I00
tp2893
a(I40
I25
I01
tp2894
a(I12
I25
I01
tp2895
a(I40
I25
I00
tp2896
a(I12
I25
I00
tp2897
a(I20
I11
I01
tp2898
a(I20
I11
I00
tp2899
a(I79
I48
I01
tp2900
a(I31
I23
I01
tp2901
a(I79
I48
I00
tp2902
a(I31
I23
I00
tp2903
a(I30
I3
I01
tp2904
a(I30
I3
I00
tp2905
a(I40
I30
I01
tp2906
a(I12
I30
I01
tp2907
a(I40
I30
I00
tp2908
a(I12
I30
I00
tp2909
a(I50
I72
I01
tp2910
a(I51
I72
I01
tp2911
a(I50
I72
I00
tp2912
a(I51
I72
I00
tp2913
a(I45
I77
I01
tp2914
a(I28
I31
I01
tp2915
a(I45
I77
I00
tp2916
a(I55
I5
I00
tp2917
a(I28
I31
I00
tp2918
a(I50
I22
I01
tp2919
a(I51
I22
I01
tp2920
a(I52
I38
I01
tp2921
a(I51
I22
I00
tp2922
a(I50
I22
I00
tp2923
a(I25
I3
I01
tp2924
a(I52
I38
I00
tp2925
a(I25
I3
I00
tp2926
a(I50
I26
I01
tp2927
a(I51
I26
I01
tp2928
a(I45
I74
I01
tp2929
a(I51
I26
I00
tp2930
a(I50
I26
I00
tp2931
a(I45
I74
I00
tp2932
a(I56
I19
I01
tp2933
a(I56
I19
I00
tp2934
a(I45
I27
I01
tp2935
a(I45
I27
I00
tp2936
a(I40
I21
I01
tp2937
a(I12
I21
I01
tp2938
a(I26
I25
I01
tp2939
a(I12
I21
I00
tp2940
a(I40
I21
I00
tp2941
a(I26
I25
I00
tp2942
a(I78
I51
I01
tp2943
a(I78
I50
I01
tp2944
a(I78
I50
I00
tp2945
a(I78
I51
I00
tp2946
a(I22
I25
I01
tp2947
a(I22
I25
I00
tp2948
a(I45
I32
I01
tp2949
a(I28
I77
I01
tp2950
a(I45
I32
I00
tp2951
a(I29
I46
I01
tp2952
a(I73
I46
I01
tp2953
a(I41
I46
I01
tp2954
a(I28
I77
I00
tp2955
a(I29
I46
I00
tp2956
a(I73
I46
I00
tp2957
a(I41
I46
I00
tp2958
a(I26
I30
I01
tp2959
a(I72
I25
I01
tp2960
a(I39
I79
I01
tp2961
a(I26
I30
I00
tp2962
a(I72
I25
I00
tp2963
a(I39
I79
I00
tp2964
a(I28
I74
I01
tp2965
a(I20
I57
I01
tp2966
a(I22
I30
I01
tp2967
a(I20
I57
I00
tp2968
a(I28
I74
I00
tp2969
a(I23
I78
I01
tp2970
a(I22
I30
I00
tp2971
a(I23
I78
I00
tp2972
a(I48
I82
I01
tp2973
a(I75
I28
I01
tp2974
a(I48
I82
I00
tp2975
a(I75
I28
I00
tp2976
a(I28
I27
I01
tp2977
a(I72
I30
I01
tp2978
a(I28
I27
I00
tp2979
a(I50
I12
I01
tp2980
a(I72
I30
I00
tp2981
a(I51
I12
I01
tp2982
a(I51
I40
I01
tp2983
a(I50
I40
I01
tp2984
a(I29
I72
I01
tp2985
a(I73
I72
I01
tp2986
a(I41
I72
I01
tp2987
a(I50
I12
I00
tp2988
a(I51
I12
I00
tp2989
a(I51
I40
I00
tp2990
a(I50
I40
I00
tp2991
a(I41
I72
I00
tp2992
a(I29
I72
I00
tp2993
a(I73
I72
I00
tp2994
a(I42
I78
I01
tp2995
a(I46
I25
I01
tp2996
a(I42
I78
I00
tp2997
a(I45
I42
I01
tp2998
a(I46
I25
I00
tp2999
a(I28
I32
I01
tp3000
a(I45
I42
I00
tp3001
a(I28
I32
I00
tp3002
a(I29
I22
I01
tp3003
a(I73
I22
I01
tp3004
a(I41
I22
I01
tp3005
a(I83
I79
I01
tp3006
a(I47
I82
I01
tp3007
a(I52
I81
I01
tp3008
a(I73
I22
I00
tp3009
a(I41
I22
I00
tp3010
a(I29
I22
I00
tp3011
a(I26
I21
I01
tp3012
a(I83
I79
I00
tp3013
a(I47
I82
I00
tp3014
a(I52
I81
I00
tp3015
a(I26
I21
I00
tp3016
a(I73
I26
I01
tp3017
a(I29
I26
I01
tp3018
a(I41
I26
I01
tp3019
a(I82
I11
I01
tp3020
a(I73
I26
I00
tp3021
a(I29
I26
I00
tp3022
a(I41
I26
I00
tp3023
a(I22
I21
I01
tp3024
a(I82
I11
I00
tp3025
a(I22
I21
I00
tp3026
a(I46
I30
I01
tp3027
a(I46
I30
I00
tp3028
a(I45
I23
I01
tp3029
a(I45
I23
I00
tp3030
a(I75
I45
I01
tp3031
a(I72
I21
I01
tp3032
a(I75
I45
I00
tp3033
a(I72
I21
I00
tp3034
a(I32
I78
I01
tp3035
a(I32
I78
I00
tp3036
a(I28
I42
I01
tp3037
a(I28
I42
I00
tp3038
a(I27
I78
I01
tp3039
a(I27
I78
I00
tp3040
a(I46
I21
I01
tp3041
a(I3
I49
I01
tp3042
a(I3
I24
I01
tp3043
a(I46
I21
I00
tp3044
a(I3
I49
I00
tp3045
a(I3
I24
I00
tp3046
a(I28
I23
I01
tp3047
a(I40
I3
I01
tp3048
a(I12
I3
I01
tp3049
a(I74
I78
I01
tp3050
a(I28
I23
I00
tp3051
a(I40
I3
I00
tp3052
a(I12
I3
I00
tp3053
a(I74
I78
I00
tp3054
a(I29
I12
I01
tp3055
a(I73
I40
I01
tp3056
a(I41
I12
I01
tp3057
a(I29
I40
I01
tp3058
a(I41
I40
I01
tp3059
a(I73
I12
I01
tp3060
a(I80
I52
I01
tp3061
a(I13
I75
I01
tp3062
a(I41
I40
I00
tp3063
a(I73
I12
I00
tp3064
a(I29
I12
I00
tp3065
a(I73
I40
I00
tp3066
a(I41
I12
I00
tp3067
a(I29
I40
I00
tp3068
a(I80
I52
I00
tp3069
a(I13
I75
I00
tp3070
a(I77
I78
I01
tp3071
a(I77
I78
I00
tp3072
a(I78
I46
I01
tp3073
a(I78
I46
I00
tp3074
a(I39
I47
I01
tp3075
a(I76
I75
I01
tp3076
a(I39
I47
I00
tp3077
a(I76
I75
I00
tp3078
a(I82
I57
I01
tp3079
a(I23
I41
I01
tp3080
a(I23
I29
I01
tp3081
a(I23
I73
I01
tp3082
a(I82
I57
I00
tp3083
a(I23
I29
I00
tp3084
a(I23
I73
I00
tp3085
a(I23
I41
I00
tp3086
a(I48
I20
I01
tp3087
a(I48
I20
I00
tp3088
a(I39
I48
I01
tp3089
a(I78
I72
I01
tp3090
a(I39
I48
I00
tp3091
a(I78
I72
I00
tp3092
a(I42
I29
I01
tp3093
a(I42
I41
I01
tp3094
a(I42
I73
I01
tp3095
a(I31
I78
I01
tp3096
a(I42
I73
I00
tp3097
a(I42
I29
I00
tp3098
a(I42
I41
I00
tp3099
a(I26
I3
I01
tp3100
a(I31
I78
I00
tp3101
a(I83
I47
I01
tp3102
a(I79
I82
I01
tp3103
a(I78
I22
I01
tp3104
a(I26
I3
I00
tp3105
a(I50
I25
I01
tp3106
a(I51
I25
I01
tp3107
a(I83
I47
I00
tp3108
a(I79
I82
I00
tp3109
a(I47
I20
I01
tp3110
a(I78
I22
I00
tp3111
a(I22
I3
I01
tp3112
a(I51
I25
I00
tp3113
a(I47
I20
I00
tp3114
a(I50
I25
I00
tp3115
a(I78
I26
I01
tp3116
a(I22
I3
I00
tp3117
a(I78
I26
I00
tp3118
a(I72
I3
I01
tp3119
a(I72
I3
I00
tp3120
a(I50
I30
I01
tp3121
a(I51
I30
I01
tp3122
a(I83
I48
I01
tp3123
a(I75
I31
I01
tp3124
a(I51
I30
I00
tp3125
a(I50
I30
I00
tp3126
a(I83
I48
I00
tp3127
a(I75
I31
I00
tp3128
a(I32
I41
I01
tp3129
a(I32
I73
I01
tp3130
a(I32
I29
I01
tp3131
a(I32
I29
I00
tp3132
a(I32
I41
I00
tp3133
a(I32
I73
I00
tp3134
a(I27
I41
I01
tp3135
a(I27
I29
I01
tp3136
a(I27
I73
I01
tp3137
a(I46
I3
I01
tp3138
a(I21
I24
I01
tp3139
a(I21
I49
I01
tp3140
a(I27
I41
I00
tp3141
a(I27
I29
I00
tp3142
a(I27
I73
I00
tp3143
a(I23
I51
I01
tp3144
a(I23
I50
I01
tp3145
a(I46
I3
I00
tp3146
a(I21
I49
I00
tp3147
a(I21
I24
I00
tp3148
a(I23
I51
I00
tp3149
a(I23
I50
I00
tp3150
a(I74
I73
I01
tp3151
a(I74
I29
I01
tp3152
a(I74
I41
I01
tp3153
a(I51
I21
I01
tp3154
a(I50
I21
I01
tp3155
a(I74
I73
I00
tp3156
a(I74
I29
I00
tp3157
a(I74
I41
I00
tp3158
a(I50
I21
I00
tp3159
a(I51
I21
I00
tp3160
a(I75
I77
I01
tp3161
a(I78
I12
I01
tp3162
a(I78
I40
I01
tp3163
a(I44
I75
I01
tp3164
a(I75
I77
I00
tp3165
a(I78
I12
I00
tp3166
a(I78
I40
I00
tp3167
a(I42
I50
I01
tp3168
a(I42
I51
I01
tp3169
a(I44
I75
I00
tp3170
a(I77
I29
I01
tp3171
a(I77
I41
I01
tp3172
a(I77
I73
I01
tp3173
a(I42
I50
I00
tp3174
a(I42
I51
I00
tp3175
a(I33
I75
I01
tp3176
a(I77
I73
I00
tp3177
a(I77
I29
I00
tp3178
a(I77
I41
I00
tp3179
a(I75
I74
I01
tp3180
a(I33
I75
I00
tp3181
a(I73
I25
I01
tp3182
a(I29
I25
I01
tp3183
a(I41
I25
I01
tp3184
a(I75
I74
I00
tp3185
a(I14
I4
I01
tp3186
a(I73
I25
I00
tp3187
a(I29
I25
I00
tp3188
a(I41
I25
I00
tp3189
a(I14
I4
I00
tp3190
a(I30
I49
I01
tp3191
a(I30
I24
I01
tp3192
a(I75
I27
I01
tp3193
a(I30
I49
I00
tp3194
a(I30
I24
I00
tp3195
a(I75
I27
I00
tp3196
a(I29
I30
I01
tp3197
a(I73
I30
I01
tp3198
a(I41
I30
I01
tp3199
a(I29
I30
I00
tp3200
a(I41
I30
I00
tp3201
a(I73
I30
I00
tp3202
a(I75
I32
I01
tp3203
a(I25
I49
I01
tp3204
a(I25
I24
I01
tp3205
a(I75
I32
I00
tp3206
a(I25
I24
I00
tp3207
a(I25
I49
I00
tp3208
a(I32
I51
I01
tp3209
a(I32
I50
I01
tp3210
a(I31
I29
I01
tp3211
a(I31
I73
I01
tp3212
a(I31
I41
I01
tp3213
a(I48
I11
I01
tp3214
a(I32
I51
I00
tp3215
a(I32
I50
I00
tp3216
a(I45
I78
I01
tp3217
a(I31
I41
I00
tp3218
a(I80
I38
I01
tp3219
a(I31
I29
I00
tp3220
a(I31
I73
I00
tp3221
a(I57
I80
I01
tp3222
a(I79
I20
I01
tp3223
a(I48
I11
I00
tp3224
a(I45
I78
I00
tp3225
a(I80
I38
I00
tp3226
a(I57
I80
I00
tp3227
a(I79
I20
I00
tp3228
a(I27
I51
I01
tp3229
a(I27
I50
I01
tp3230
a(I27
I51
I00
tp3231
a(I27
I50
I00
tp3232
a(I74
I50
I01
tp3233
a(I74
I51
I01
tp3234
a(I73
I21
I01
tp3235
a(I29
I21
I01
tp3236
a(I41
I21
I01
tp3237
a(I47
I11
I01
tp3238
a(I74
I50
I00
tp3239
a(I74
I51
I00
tp3240
a(I29
I21
I00
tp3241
a(I41
I21
I00
tp3242
a(I73
I21
I00
tp3243
a(I47
I11
I00
tp3244
a(I75
I42
I01
tp3245
a(I75
I42
I00
tp3246
a(I77
I50
I01
tp3247
a(I77
I51
I01
tp3248
a(I77
I51
I00
tp3249
a(I77
I50
I00
tp3250
a(I28
I78
I01
tp3251
a(I28
I78
I00
tp3252
a(I75
I23
I01
tp3253
a(I75
I23
I00
tp3254
a(I50
I3
I01
tp3255
a(I51
I3
I01
tp3256
a(I13
I28
I01
tp3257
a(I23
I46
I01
tp3258
a(I50
I3
I00
tp3259
a(I51
I3
I00
tp3260
a(I13
I28
I00
tp3261
a(I23
I46
I00
tp3262
a(I76
I28
I01
tp3263
a(I31
I50
I01
tp3264
a(I31
I51
I01
tp3265
a(I48
I57
I01
tp3266
a(I80
I81
I01
tp3267
a(I31
I50
I00
tp3268
a(I31
I51
I00
tp3269
a(I76
I28
I00
tp3270
a(I42
I46
I01
tp3271
a(I78
I25
I01
tp3272
a(I11
I80
I01
tp3273
a(I48
I57
I00
tp3274
a(I80
I81
I00
tp3275
a(I42
I46
I00
tp3276
a(I78
I25
I00
tp3277
a(I11
I80
I00
tp3278
a(I23
I72
I01
tp3279
a(I39
I82
I01
tp3280
a(I23
I72
I00
tp3281
a(I13
I45
I01
tp3282
a(I39
I82
I00
tp3283
a(I78
I30
I01
tp3284
a(I23
I22
I01
tp3285
a(I47
I57
I01
tp3286
a(I13
I45
I00
tp3287
a(I78
I30
I00
tp3288
a(I47
I57
I00
tp3289
a(I23
I22
I00
tp3290
a(I23
I26
I01
tp3291
a(I42
I72
I01
tp3292
a(I23
I26
I00
tp3293
a(I42
I72
I00
tp3294
a(I76
I45
I01
tp3295
a(I45
I73
I01
tp3296
a(I45
I41
I01
tp3297
a(I45
I29
I01
tp3298
a(I32
I46
I01
tp3299
a(I76
I45
I00
tp3300
a(I42
I22
I01
tp3301
a(I40
I49
I01
tp3302
a(I12
I24
I01
tp3303
a(I12
I49
I01
tp3304
a(I40
I24
I01
tp3305
a(I45
I73
I00
tp3306
a(I45
I41
I00
tp3307
a(I45
I29
I00
tp3308
a(I4
I33
I01
tp3309
a(I32
I46
I00
tp3310
a(I42
I22
I00
tp3311
a(I42
I26
I01
tp3312
a(I12
I24
I00
tp3313
a(I40
I49
I00
tp3314
a(I40
I24
I00
tp3315
a(I12
I49
I00
tp3316
a(I83
I82
I01
tp3317
a(I4
I33
I00
tp3318
a(I4
I44
I01
tp3319
a(I27
I46
I01
tp3320
a(I42
I26
I00
tp3321
a(I41
I3
I01
tp3322
a(I29
I3
I01
tp3323
a(I73
I3
I01
tp3324
a(I83
I82
I00
tp3325
a(I79
I11
I01
tp3326
a(I78
I21
I01
tp3327
a(I4
I44
I00
tp3328
a(I27
I46
I00
tp3329
a(I41
I3
I00
tp3330
a(I29
I3
I00
tp3331
a(I73
I3
I00
tp3332
a(I79
I11
I00
tp3333
a(I78
I21
I00
tp3334
a(I74
I46
I01
tp3335
a(I32
I72
I01
tp3336
a(I74
I46
I00
tp3337
a(I32
I72
I00
tp3338
a(I28
I73
I01
tp3339
a(I28
I41
I01
tp3340
a(I28
I29
I01
tp3341
a(I77
I46
I01
tp3342
a(I32
I22
I01
tp3343
a(I27
I72
I01
tp3344
a(I28
I29
I00
tp3345
a(I28
I73
I00
tp3346
a(I28
I41
I00
tp3347
a(I23
I40
I01
tp3348
a(I23
I12
I01
tp3349
a(I77
I46
I00
tp3350
a(I32
I22
I00
tp3351
a(I32
I26
I01
tp3352
a(I27
I72
I00
tp3353
a(I23
I12
I00
tp3354
a(I23
I40
I00
tp3355
a(I32
I26
I00
tp3356
a(I27
I22
I01
tp3357
a(I44
I28
I01
tp3358
a(I74
I72
I01
tp3359
a(I26
I24
I01
tp3360
a(I26
I49
I01
tp3361
a(I27
I22
I00
tp3362
a(I27
I26
I01
tp3363
a(I74
I72
I00
tp3364
a(I44
I28
I00
tp3365
a(I33
I28
I01
tp3366
a(I42
I12
I01
tp3367
a(I42
I40
I01
tp3368
a(I26
I49
I00
tp3369
a(I26
I24
I00
tp3370
a(I22
I24
I01
tp3371
a(I22
I49
I01
tp3372
a(I27
I26
I00
tp3373
a(I74
I22
I01
tp3374
a(I77
I72
I01
tp3375
a(I33
I28
I00
tp3376
a(I42
I40
I00
tp3377
a(I42
I12
I00
tp3378
a(I22
I24
I00
tp3379
a(I22
I49
I00
tp3380
a(I74
I26
I01
tp3381
a(I74
I22
I00
tp3382
a(I45
I50
I01
tp3383
a(I77
I72
I00
tp3384
a(I45
I51
I01
tp3385
a(I72
I49
I01
tp3386
a(I72
I24
I01
tp3387
a(I31
I46
I01
tp3388
a(I74
I26
I00
tp3389
a(I77
I22
I01
tp3390
a(I45
I51
I00
tp3391
a(I45
I50
I00
tp3392
a(I72
I49
I00
tp3393
a(I72
I24
I00
tp3394
a(I31
I46
I00
tp3395
a(I77
I26
I01
tp3396
a(I49
I83
I01
tp3397
a(I24
I83
I01
tp3398
a(I77
I22
I00
tp3399
a(I39
I20
I01
tp3400
a(I24
I83
I00
tp3401
a(I49
I83
I00
tp3402
a(I77
I26
I00
tp3403
a(I44
I45
I01
tp3404
a(I20
I80
I01
tp3405
a(I79
I57
I01
tp3406
a(I39
I20
I00
tp3407
a(I13
I31
I01
tp3408
a(I44
I45
I00
tp3409
a(I20
I80
I00
tp3410
a(I79
I57
I00
tp3411
a(I33
I45
I01
tp3412
a(I32
I12
I01
tp3413
a(I32
I40
I01
tp3414
a(I13
I31
I00
tp3415
a(I46
I49
I01
tp3416
a(I46
I24
I01
tp3417
a(I31
I72
I01
tp3418
a(I33
I45
I00
tp3419
a(I32
I40
I00
tp3420
a(I32
I12
I00
tp3421
a(I4
I76
I01
tp3422
a(I46
I24
I00
tp3423
a(I46
I49
I00
tp3424
a(I76
I31
I01
tp3425
a(I28
I50
I01
tp3426
a(I28
I51
I01
tp3427
a(I31
I72
I00
tp3428
a(I27
I40
I01
tp3429
a(I27
I12
I01
tp3430
a(I4
I76
I00
tp3431
a(I31
I22
I01
tp3432
a(I28
I51
I00
tp3433
a(I28
I50
I00
tp3434
a(I76
I31
I00
tp3435
a(I49
I39
I01
tp3436
a(I24
I39
I01
tp3437
a(I27
I40
I00
tp3438
a(I27
I12
I00
tp3439
a(I31
I26
I01
tp3440
a(I83
I20
I01
tp3441
a(I31
I22
I00
tp3442
a(I24
I39
I00
tp3443
a(I4
I13
I01
tp3444
a(I49
I39
I00
tp3445
a(I78
I3
I01
tp3446
a(I74
I40
I01
tp3447
a(I74
I12
I01
tp3448
a(I83
I20
I00
tp3449
a(I31
I26
I00
tp3450
a(I4
I13
I00
tp3451
a(I78
I3
I00
tp3452
a(I13
I77
I01
tp3453
a(I74
I12
I00
tp3454
a(I74
I40
I00
tp3455
a(I75
I78
I01
tp3456
a(I77
I40
I01
tp3457
a(I77
I12
I01
tp3458
a(I13
I77
I00
tp3459
a(I13
I74
I01
tp3460
a(I75
I78
I00
tp3461
a(I77
I12
I00
tp3462
a(I77
I40
I00
tp3463
a(I76
I77
I01
tp3464
a(I13
I74
I00
tp3465
a(I76
I77
I00
tp3466
a(I13
I27
I01
tp3467
a(I76
I74
I01
tp3468
a(I13
I27
I00
tp3469
a(I76
I74
I00
tp3470
a(I13
I32
I01
tp3471
a(I23
I25
I01
tp3472
a(I76
I27
I01
tp3473
a(I31
I40
I01
tp3474
a(I31
I12
I01
tp3475
a(I23
I25
I00
tp3476
a(I13
I32
I00
tp3477
a(I76
I27
I00
tp3478
a(I57
I52
I01
tp3479
a(I31
I40
I00
tp3480
a(I31
I12
I00
tp3481
a(I76
I32
I01
tp3482
a(I23
I30
I01
tp3483
a(I42
I25
I01
tp3484
a(I57
I52
I00
tp3485
a(I19
I37
I01
tp3486
a(I45
I46
I01
tp3487
a(I76
I32
I00
tp3488
a(I23
I30
I00
tp3489
a(I19
I37
I00
tp3490
a(I42
I25
I00
tp3491
a(I45
I46
I00
tp3492
a(I82
I80
I01
tp3493
a(I44
I31
I01
tp3494
a(I37
I55
I01
tp3495
a(I42
I30
I01
tp3496
a(I13
I42
I01
tp3497
a(I37
I55
I00
tp3498
a(I82
I80
I00
tp3499
a(I44
I31
I00
tp3500
a(I33
I31
I01
tp3501
a(I42
I30
I00
tp3502
a(I13
I42
I00
tp3503
a(I39
I11
I01
tp3504
a(I45
I72
I01
tp3505
a(I33
I31
I00
tp3506
a(I50
I24
I01
tp3507
a(I50
I49
I01
tp3508
a(I51
I49
I01
tp3509
a(I51
I24
I01
tp3510
a(I39
I11
I00
tp3511
a(I76
I42
I01
tp3512
a(I23
I21
I01
tp3513
a(I45
I72
I00
tp3514
a(I13
I23
I01
tp3515
a(I32
I25
I01
tp3516
a(I28
I46
I01
tp3517
a(I51
I49
I00
tp3518
a(I50
I49
I00
tp3519
a(I50
I24
I00
tp3520
a(I51
I24
I00
tp3521
a(I45
I22
I01
tp3522
a(I23
I21
I00
tp3523
a(I76
I42
I00
tp3524
a(I32
I25
I00
tp3525
a(I13
I23
I00
tp3526
a(I45
I26
I01
tp3527
a(I28
I46
I00
tp3528
a(I45
I22
I00
tp3529
a(I27
I25
I01
tp3530
a(I76
I23
I01
tp3531
a(I42
I21
I01
tp3532
a(I44
I77
I01
tp3533
a(I45
I26
I00
tp3534
a(I32
I30
I01
tp3535
a(I27
I25
I00
tp3536
a(I75
I41
I01
tp3537
a(I75
I29
I01
tp3538
a(I75
I73
I01
tp3539
a(I83
I11
I01
tp3540
a(I42
I21
I00
tp3541
a(I76
I23
I00
tp3542
a(I33
I77
I01
tp3543
a(I44
I77
I00
tp3544
a(I74
I25
I01
tp3545
a(I32
I30
I00
tp3546
a(I44
I74
I01
tp3547
a(I28
I72
I01
tp3548
a(I83
I11
I00
tp3549
a(I75
I73
I00
tp3550
a(I75
I41
I00
tp3551
a(I75
I29
I00
tp3552
a(I27
I30
I01
tp3553
a(I11
I52
I01
tp3554
a(I74
I25
I00
tp3555
a(I33
I77
I00
tp3556
a(I33
I74
I01
tp3557
a(I28
I72
I00
tp3558
a(I44
I74
I00
tp3559
a(I77
I25
I01
tp3560
a(I27
I30
I00
tp3561
a(I11
I52
I00
tp3562
a(I28
I22
I01
tp3563
a(I44
I27
I01
tp3564
a(I74
I30
I01
tp3565
a(I77
I25
I00
tp3566
a(I33
I74
I00
tp3567
a(I28
I26
I01
tp3568
a(I28
I22
I00
tp3569
a(I33
I27
I01
tp3570
a(I44
I27
I00
tp3571
a(I74
I30
I00
tp3572
a(I32
I21
I01
tp3573
a(I44
I32
I01
tp3574
a(I77
I30
I01
tp3575
a(I28
I26
I00
tp3576
a(I33
I27
I00
tp3577
a(I32
I21
I00
tp3578
a(I33
I32
I01
tp3579
a(I44
I32
I00
tp3580
a(I77
I30
I00
tp3581
a(I45
I12
I01
tp3582
a(I45
I40
I01
tp3583
a(I39
I57
I01
tp3584
a(I27
I21
I01
tp3585
a(I41
I49
I01
tp3586
a(I73
I49
I01
tp3587
a(I73
I24
I01
tp3588
a(I29
I24
I01
tp3589
a(I41
I24
I01
tp3590
a(I29
I49
I01
tp3591
a(I33
I32
I00
tp3592
a(I45
I12
I00
tp3593
a(I45
I40
I00
tp3594
a(I39
I57
I00
tp3595
a(I27
I21
I00
tp3596
a(I31
I25
I01
tp3597
a(I41
I24
I00
tp3598
a(I73
I49
I00
tp3599
a(I29
I49
I00
tp3600
a(I73
I24
I00
tp3601
a(I29
I24
I00
tp3602
a(I41
I49
I00
tp3603
a(I74
I21
I01
tp3604
a(I31
I25
I00
tp3605
a(I74
I21
I00
tp3606
a(I24
I79
I01
tp3607
a(I49
I79
I01
tp3608
a(I77
I21
I01
tp3609
a(I44
I42
I01
tp3610
a(I31
I30
I01
tp3611
a(I75
I51
I01
tp3612
a(I75
I50
I01
tp3613
a(I49
I79
I00
tp3614
a(I24
I79
I00
tp3615
a(I83
I57
I01
tp3616
a(I77
I21
I00
tp3617
a(I33
I42
I01
tp3618
a(I44
I42
I00
tp3619
a(I28
I40
I01
tp3620
a(I31
I30
I00
tp3621
a(I28
I12
I01
tp3622
a(I23
I3
I01
tp3623
a(I75
I51
I00
tp3624
a(I75
I50
I00
tp3625
a(I83
I57
I00
tp3626
a(I33
I42
I00
tp3627
a(I28
I12
I00
tp3628
a(I28
I40
I00
tp3629
a(I44
I23
I01
tp3630
a(I23
I3
I00
tp3631
a(I81
I56
I01
tp3632
a(I57
I38
I01
tp3633
a(I33
I23
I01
tp3634
a(I44
I23
I00
tp3635
a(I81
I56
I00
tp3636
a(I42
I3
I01
tp3637
a(I57
I38
I00
tp3638
a(I33
I23
I00
tp3639
a(I31
I21
I01
tp3640
a(I56
I37
I01
tp3641
a(I42
I3
I00
tp3642
a(I56
I37
I00
tp3643
a(I31
I21
I00
tp3644
a(I3
I83
I01
tp3645
a(I3
I83
I00
tp3646
a(I20
I52
I01
tp3647
a(I32
I3
I01
tp3648
a(I20
I52
I00
tp3649
a(I32
I3
I00
tp3650
a(I3
I39
I01
tp3651
a(I27
I3
I01
tp3652
a(I78
I49
I01
tp3653
a(I78
I24
I01
tp3654
a(I3
I39
I00
tp3655
a(I27
I3
I00
tp3656
a(I74
I3
I01
tp3657
a(I78
I49
I00
tp3658
a(I78
I24
I00
tp3659
a(I38
I56
I01
tp3660
a(I48
I80
I01
tp3661
a(I45
I25
I01
tp3662
a(I57
I81
I01
tp3663
a(I4
I75
I01
tp3664
a(I11
I38
I01
tp3665
a(I74
I3
I00
tp3666
a(I38
I56
I00
tp3667
a(I14
I33
I01
tp3668
a(I48
I80
I00
tp3669
a(I57
I81
I00
tp3670
a(I77
I3
I01
tp3671
a(I24
I47
I01
tp3672
a(I49
I47
I01
tp3673
a(I45
I25
I00
tp3674
a(I11
I38
I00
tp3675
a(I4
I75
I00
tp3676
a(I14
I44
I01
tp3677
a(I13
I78
I01
tp3678
a(I45
I30
I01
tp3679
a(I24
I47
I00
tp3680
a(I49
I47
I00
tp3681
a(I14
I33
I00
tp3682
a(I77
I3
I00
tp3683
a(I47
I80
I01
tp3684
a(I75
I46
I01
tp3685
a(I13
I78
I00
tp3686
a(I14
I44
I00
tp3687
a(I45
I30
I00
tp3688
a(I47
I80
I00
tp3689
a(I49
I48
I01
tp3690
a(I24
I48
I01
tp3691
a(I76
I78
I01
tp3692
a(I75
I46
I00
tp3693
a(I28
I25
I01
tp3694
a(I24
I48
I00
tp3695
a(I49
I48
I00
tp3696
a(I76
I78
I00
tp3697
a(I31
I3
I01
tp3698
a(I28
I25
I00
tp3699
a(I75
I72
I01
tp3700
a(I45
I21
I01
tp3701
a(I21
I83
I01
tp3702
a(I28
I30
I01
tp3703
a(I31
I3
I00
tp3704
a(I75
I72
I00
tp3705
a(I45
I21
I00
tp3706
a(I75
I22
I01
tp3707
a(I21
I83
I00
tp3708
a(I28
I30
I00
tp3709
a(I75
I26
I01
tp3710
a(I75
I22
I00
tp3711
a(I11
I81
I01
tp3712
a(I75
I26
I00
tp3713
a(I82
I52
I01
tp3714
a(I11
I81
I00
tp3715
a(I21
I39
I01
tp3716
a(I82
I52
I00
tp3717
a(I30
I83
I01
tp3718
a(I81
I19
I01
tp3719
a(I28
I21
I01
tp3720
a(I21
I39
I00
tp3721
a(I81
I19
I00
tp3722
a(I30
I83
I00
tp3723
a(I28
I21
I00
tp3724
a(I25
I83
I01
tp3725
a(I14
I76
I01
tp3726
a(I25
I83
I00
tp3727
a(I14
I76
I00
tp3728
a(I75
I40
I01
tp3729
a(I75
I12
I01
tp3730
a(I30
I39
I01
tp3731
a(I13
I73
I01
tp3732
a(I13
I29
I01
tp3733
a(I13
I41
I01
tp3734
a(I14
I13
I01
tp3735
a(I44
I78
I01
tp3736
a(I20
I38
I01
tp3737
a(I79
I80
I01
tp3738
a(I33
I78
I01
tp3739
a(I30
I39
I00
tp3740
a(I75
I40
I00
tp3741
a(I75
I12
I00
tp3742
a(I13
I29
I00
tp3743
a(I13
I41
I00
tp3744
a(I13
I73
I00
tp3745
a(I44
I78
I00
tp3746
a(I14
I13
I00
tp3747
a(I20
I38
I00
tp3748
a(I79
I80
I00
tp3749
a(I76
I29
I01
tp3750
a(I76
I41
I01
tp3751
a(I76
I73
I01
tp3752
a(I25
I39
I01
tp3753
a(I33
I78
I00
tp3754
a(I25
I39
I00
tp3755
a(I76
I73
I00
tp3756
a(I76
I29
I00
tp3757
a(I76
I41
I00
tp3758
a(I52
I56
I01
tp3759
a(I45
I3
I01
tp3760
a(I38
I19
I01
tp3761
a(I5
I14
I01
tp3762
a(I52
I56
I00
tp3763
a(I45
I3
I00
tp3764
a(I38
I19
I00
tp3765
a(I5
I14
I00
tp3766
a(I3
I79
I01
tp3767
a(I3
I79
I00
tp3768
a(I23
I24
I01
tp3769
a(I23
I49
I01
tp3770
a(I28
I3
I01
tp3771
a(I13
I50
I01
tp3772
a(I13
I51
I01
tp3773
a(I20
I81
I01
tp3774
a(I23
I24
I00
tp3775
a(I23
I49
I00
tp3776
a(I28
I3
I00
tp3777
a(I13
I50
I00
tp3778
a(I13
I51
I00
tp3779
a(I20
I81
I00
tp3780
a(I4
I28
I01
tp3781
a(I42
I49
I01
tp3782
a(I42
I24
I01
tp3783
a(I76
I50
I01
tp3784
a(I76
I51
I01
tp3785
a(I42
I49
I00
tp3786
a(I42
I24
I00
tp3787
a(I4
I28
I00
tp3788
a(I76
I50
I00
tp3789
a(I76
I51
I00
tp3790
a(I40
I83
I01
tp3791
a(I12
I83
I01
tp3792
a(I44
I41
I01
tp3793
a(I44
I73
I01
tp3794
a(I44
I29
I01
tp3795
a(I82
I38
I01
tp3796
a(I49
I82
I01
tp3797
a(I24
I82
I01
tp3798
a(I33
I41
I01
tp3799
a(I33
I73
I01
tp3800
a(I33
I29
I01
tp3801
a(I12
I83
I00
tp3802
a(I40
I83
I00
tp3803
a(I44
I29
I00
tp3804
a(I44
I41
I00
tp3805
a(I44
I73
I00
tp3806
a(I75
I25
I01
tp3807
a(I4
I45
I01
tp3808
a(I82
I38
I00
tp3809
a(I32
I24
I01
tp3810
a(I32
I49
I01
tp3811
a(I24
I82
I00
tp3812
a(I49
I82
I00
tp3813
a(I33
I29
I00
tp3814
a(I33
I41
I00
tp3815
a(I33
I73
I00
tp3816
a(I75
I25
I00
tp3817
a(I32
I24
I00
tp3818
a(I32
I49
I00
tp3819
a(I4
I45
I00
tp3820
a(I27
I24
I01
tp3821
a(I27
I49
I01
tp3822
a(I75
I30
I01
tp3823
a(I12
I39
I01
tp3824
a(I40
I39
I01
tp3825
a(I27
I49
I00
tp3826
a(I27
I24
I00
tp3827
a(I74
I24
I01
tp3828
a(I74
I49
I01
tp3829
a(I12
I39
I00
tp3830
a(I40
I39
I00
tp3831
a(I75
I30
I00
tp3832
a(I21
I79
I01
tp3833
a(I74
I49
I00
tp3834
a(I74
I24
I00
tp3835
a(I77
I24
I01
tp3836
a(I77
I49
I01
tp3837
a(I26
I83
I01
tp3838
a(I3
I47
I01
tp3839
a(I48
I52
I01
tp3840
a(I22
I83
I01
tp3841
a(I21
I79
I00
tp3842
a(I26
I83
I00
tp3843
a(I3
I47
I00
tp3844
a(I77
I24
I00
tp3845
a(I77
I49
I00
tp3846
a(I48
I52
I00
tp3847
a(I75
I21
I01
tp3848
a(I22
I83
I00
tp3849
a(I72
I83
I01
tp3850
a(I44
I50
I01
tp3851
a(I44
I51
I01
tp3852
a(I3
I48
I01
tp3853
a(I47
I52
I01
tp3854
a(I82
I81
I01
tp3855
a(I75
I21
I00
tp3856
a(I13
I46
I01
tp3857
a(I33
I50
I01
tp3858
a(I33
I51
I01
tp3859
a(I72
I83
I00
tp3860
a(I26
I39
I01
tp3861
a(I30
I79
I01
tp3862
a(I3
I48
I00
tp3863
a(I44
I50
I00
tp3864
a(I44
I51
I00
tp3865
a(I47
I52
I00
tp3866
a(I52
I19
I01
tp3867
a(I82
I81
I00
tp3868
a(I31
I49
I01
tp3869
a(I31
I24
I01
tp3870
a(I22
I39
I01
tp3871
a(I39
I80
I01
tp3872
a(I13
I46
I00
tp3873
a(I33
I50
I00
tp3874
a(I33
I51
I00
tp3875
a(I76
I46
I01
tp3876
a(I26
I39
I00
tp3877
a(I46
I83
I01
tp3878
a(I52
I19
I00
tp3879
a(I30
I79
I00
tp3880
a(I31
I49
I00
tp3881
a(I31
I24
I00
tp3882
a(I39
I80
I00
tp3883
a(I22
I39
I00
tp3884
a(I72
I39
I01
tp3885
a(I25
I79
I01
tp3886
a(I13
I72
I01
tp3887
a(I46
I83
I00
tp3888
a(I76
I46
I00
tp3889
a(I72
I39
I00
tp3890
a(I25
I79
I00
tp3891
a(I24
I20
I01
tp3892
a(I49
I20
I01
tp3893
a(I13
I22
I01
tp3894
a(I13
I72
I00
tp3895
a(I76
I72
I01
tp3896
a(I83
I80
I01
tp3897
a(I13
I26
I01
tp3898
a(I4
I31
I01
tp3899
a(I24
I20
I00
tp3900
a(I49
I20
I00
tp3901
a(I46
I39
I01
tp3902
a(I13
I22
I00
tp3903
a(I76
I22
I01
tp3904
a(I83
I80
I00
tp3905
a(I76
I72
I00
tp3906
a(I13
I26
I00
tp3907
a(I4
I31
I00
tp3908
a(I76
I26
I01
tp3909
a(I46
I39
I00
tp3910
a(I76
I22
I00
tp3911
a(I76
I26
I00
tp3912
a(I21
I47
I01
tp3913
a(I4
I77
I01
tp3914
a(I21
I47
I00
tp3915
a(I75
I3
I01
tp3916
a(I4
I74
I01
tp3917
a(I4
I77
I00
tp3918
a(I13
I12
I01
tp3919
a(I13
I40
I01
tp3920
a(I21
I48
I01
tp3921
a(I14
I75
I01
tp3922
a(I79
I52
I01
tp3923
a(I75
I3
I00
tp3924
a(I4
I27
I01
tp3925
a(I44
I46
I01
tp3926
a(I4
I74
I00
tp3927
a(I21
I48
I00
tp3928
a(I13
I40
I00
tp3929
a(I13
I12
I00
tp3930
a(I30
I47
I01
tp3931
a(I76
I12
I01
tp3932
a(I76
I40
I01
tp3933
a(I14
I75
I00
tp3934
a(I79
I52
I00
tp3935
a(I33
I46
I01
tp3936
a(I4
I32
I01
tp3937
a(I45
I49
I01
tp3938
a(I45
I24
I01
tp3939
a(I4
I27
I00
tp3940
a(I44
I46
I00
tp3941
a(I30
I47
I00
tp3942
a(I76
I40
I00
tp3943
a(I76
I12
I00
tp3944
a(I25
I47
I01
tp3945
a(I33
I46
I00
tp3946
a(I80
I56
I01
tp3947
a(I48
I38
I01
tp3948
a(I50
I83
I01
tp3949
a(I51
I83
I01
tp3950
a(I30
I48
I01
tp3951
a(I45
I49
I00
tp3952
a(I45
I24
I00
tp3953
a(I4
I32
I00
tp3954
a(I44
I72
I01
tp3955
a(I80
I56
I00
tp3956
a(I25
I47
I00
tp3957
a(I48
I38
I00
tp3958
a(I33
I72
I01
tp3959
a(I50
I83
I00
tp3960
a(I51
I83
I00
tp3961
a(I12
I79
I01
tp3962
a(I30
I48
I00
tp3963
a(I40
I79
I01
tp3964
a(I44
I22
I01
tp3965
a(I44
I72
I00
tp3966
a(I25
I48
I01
tp3967
a(I47
I38
I01
tp3968
a(I44
I26
I01
tp3969
a(I33
I22
I01
tp3970
a(I4
I42
I01
tp3971
a(I33
I72
I00
tp3972
a(I28
I24
I01
tp3973
a(I28
I49
I01
tp3974
a(I40
I79
I00
tp3975
a(I12
I79
I00
tp3976
a(I24
I11
I01
tp3977
a(I49
I11
I01
tp3978
a(I33
I26
I01
tp3979
a(I44
I22
I00
tp3980
a(I25
I48
I00
tp3981
a(I47
I38
I00
tp3982
a(I51
I39
I01
tp3983
a(I50
I39
I01
tp3984
a(I44
I26
I00
tp3985
a(I33
I22
I00
tp3986
a(I4
I42
I00
tp3987
a(I28
I49
I00
tp3988
a(I49
I11
I00
tp3989
a(I28
I24
I00
tp3990
a(I24
I11
I00
tp3991
a(I33
I26
I00
tp3992
a(I4
I23
I01
tp3993
a(I50
I39
I00
tp3994
a(I51
I39
I00
tp3995
a(I4
I23
I00
tp3996
a(I26
I79
I01
tp3997
a(I3
I82
I01
tp3998
a(I48
I81
I01
tp3999
a(I73
I83
I01
tp4000
a(I41
I83
I01
tp4001
a(I29
I83
I01
tp4002
a(I22
I79
I01
tp4003
a(I44
I40
I01
tp4004
a(I44
I12
I01
tp4005
a(I26
I79
I00
tp4006
a(I3
I82
I00
tp4007
a(I33
I40
I01
tp4008
a(I33
I12
I01
tp4009
a(I48
I81
I00
tp4010
a(I72
I79
I01
tp4011
a(I73
I83
I00
tp4012
a(I41
I83
I00
tp4013
a(I29
I83
I00
tp4014
a(I22
I79
I00
tp4015
a(I19
I55
I01
tp4016
a(I13
I25
I01
tp4017
a(I44
I40
I00
tp4018
a(I44
I12
I00
tp4019
a(I47
I81
I01
tp4020
a(I33
I12
I00
tp4021
a(I33
I40
I00
tp4022
a(I72
I79
I00
tp4023
a(I19
I55
I00
tp4024
a(I49
I57
I01
tp4025
a(I24
I57
I01
tp4026
a(I13
I25
I00
tp4027
a(I76
I25
I01
tp4028
a(I47
I81
I00
tp4029
a(I41
I39
I01
tp4030
a(I73
I39
I01
tp4031
a(I29
I39
I01
tp4032
a(I13
I30
I01
tp4033
a(I46
I79
I01
tp4034
a(I24
I57
I00
tp4035
a(I49
I57
I00
tp4036
a(I29
I39
I00
tp4037
a(I73
I39
I00
tp4038
a(I41
I39
I00
tp4039
a(I76
I25
I00
tp4040
a(I12
I47
I01
tp4041
a(I40
I47
I01
tp4042
a(I13
I30
I00
tp4043
a(I76
I30
I01
tp4044
a(I46
I79
I00
tp4045
a(I79
I38
I01
tp4046
a(I5
I4
I01
tp4047
a(I12
I47
I00
tp4048
a(I40
I47
I00
tp4049
a(I76
I30
I00
tp4050
a(I79
I38
I00
tp4051
a(I13
I21
I01
tp4052
a(I12
I48
I01
tp4053
a(I40
I48
I01
tp4054
a(I5
I4
I00
tp4055
a(I40
I48
I00
tp4056
a(I12
I48
I00
tp4057
a(I13
I21
I00
tp4058
a(I76
I21
I01
tp4059
a(I80
I19
I01
tp4060
a(I39
I52
I01
tp4061
a(I76
I21
I00
tp4062
a(I21
I82
I01
tp4063
a(I80
I19
I00
tp4064
a(I26
I47
I01
tp4065
a(I14
I28
I01
tp4066
a(I3
I20
I01
tp4067
a(I39
I52
I00
tp4068
a(I22
I47
I01
tp4069
a(I78
I83
I01
tp4070
a(I21
I82
I00
tp4071
a(I26
I47
I00
tp4072
a(I14
I28
I00
tp4073
a(I3
I20
I00
tp4074
a(I72
I47
I01
tp4075
a(I22
I47
I00
tp4076
a(I26
I48
I01
tp4077
a(I78
I83
I00
tp4078
a(I44
I25
I01
tp4079
a(I83
I52
I01
tp4080
a(I79
I81
I01
tp4081
a(I22
I48
I01
tp4082
a(I33
I25
I01
tp4083
a(I72
I47
I00
tp4084
a(I30
I82
I01
tp4085
a(I26
I48
I00
tp4086
a(I83
I52
I00
tp4087
a(I14
I45
I01
tp4088
a(I79
I81
I00
tp4089
a(I72
I48
I01
tp4090
a(I44
I25
I00
tp4091
a(I78
I39
I01
tp4092
a(I44
I30
I01
tp4093
a(I22
I48
I00
tp4094
a(I46
I47
I01
tp4095
a(I33
I25
I00
tp4096
a(I30
I82
I00
tp4097
a(I33
I30
I01
tp4098
a(I25
I82
I01
tp4099
a(I72
I48
I00
tp4100
a(I51
I79
I01
tp4101
a(I50
I79
I01
tp4102
a(I78
I39
I00
tp4103
a(I14
I45
I00
tp4104
a(I44
I30
I00
tp4105
a(I46
I47
I00
tp4106
a(I75
I24
I01
tp4107
a(I75
I49
I01
tp4108
a(I33
I30
I00
tp4109
a(I25
I82
I00
tp4110
a(I46
I48
I01
tp4111
a(I51
I79
I00
tp4112
a(I50
I79
I00
tp4113
a(I4
I78
I01
tp4114
a(I13
I3
I01
tp4115
a(I75
I24
I00
tp4116
a(I75
I49
I00
tp4117
a(I44
I21
I01
tp4118
a(I56
I55
I01
tp4119
a(I46
I48
I00
tp4120
a(I33
I21
I01
tp4121
a(I4
I78
I00
tp4122
a(I76
I3
I01
tp4123
a(I13
I3
I00
tp4124
a(I56
I55
I00
tp4125
a(I44
I21
I00
tp4126
a(I33
I21
I00
tp4127
a(I76
I3
I00
tp4128
a(I21
I20
I01
tp4129
a(I21
I20
I00
tp4130
a(I41
I79
I01
tp4131
a(I29
I79
I01
tp4132
a(I73
I79
I01
tp4133
a(I3
I11
I01
tp4134
a(I41
I79
I00
tp4135
a(I29
I79
I00
tp4136
a(I73
I79
I00
tp4137
a(I30
I20
I01
tp4138
a(I3
I11
I00
tp4139
a(I39
I38
I01
tp4140
a(I14
I31
I01
tp4141
a(I30
I20
I00
tp4142
a(I50
I47
I01
tp4143
a(I51
I47
I01
tp4144
a(I25
I20
I01
tp4145
a(I39
I38
I00
tp4146
a(I14
I31
I00
tp4147
a(I40
I82
I01
tp4148
a(I12
I82
I01
tp4149
a(I25
I20
I00
tp4150
a(I51
I47
I00
tp4151
a(I50
I47
I00
tp4152
a(I4
I41
I01
tp4153
a(I4
I29
I01
tp4154
a(I4
I73
I01
tp4155
a(I83
I38
I01
tp4156
a(I44
I3
I01
tp4157
a(I51
I48
I01
tp4158
a(I50
I48
I01
tp4159
a(I14
I77
I01
tp4160
a(I33
I3
I01
tp4161
a(I40
I82
I00
tp4162
a(I12
I82
I00
tp4163
a(I83
I38
I00
tp4164
a(I4
I41
I00
tp4165
a(I4
I29
I00
tp4166
a(I4
I73
I00
tp4167
a(I51
I48
I00
tp4168
a(I50
I48
I00
tp4169
a(I44
I3
I00
tp4170
a(I14
I74
I01
tp4171
a(I3
I57
I01
tp4172
a(I14
I77
I00
tp4173
a(I33
I3
I00
tp4174
a(I23
I83
I01
tp4175
a(I81
I37
I01
tp4176
a(I14
I27
I01
tp4177
a(I3
I57
I00
tp4178
a(I14
I74
I00
tp4179
a(I39
I81
I01
tp4180
a(I81
I37
I00
tp4181
a(I14
I32
I01
tp4182
a(I23
I83
I00
tp4183
a(I42
I83
I01
tp4184
a(I26
I82
I01
tp4185
a(I14
I27
I00
tp4186
a(I41
I47
I01
tp4187
a(I29
I47
I01
tp4188
a(I73
I47
I01
tp4189
a(I21
I11
I01
tp4190
a(I22
I82
I01
tp4191
a(I78
I79
I01
tp4192
a(I39
I81
I00
tp4193
a(I23
I39
I01
tp4194
a(I42
I83
I00
tp4195
a(I14
I32
I00
tp4196
a(I26
I82
I00
tp4197
a(I72
I82
I01
tp4198
a(I21
I11
I00
tp4199
a(I29
I47
I00
tp4200
a(I73
I47
I00
tp4201
a(I41
I47
I00
tp4202
a(I22
I82
I00
tp4203
a(I78
I79
I00
tp4204
a(I4
I51
I01
tp4205
a(I4
I50
I01
tp4206
a(I83
I81
I01
tp4207
a(I29
I48
I01
tp4208
a(I73
I48
I01
tp4209
a(I41
I48
I01
tp4210
a(I23
I39
I00
tp4211
a(I42
I39
I01
tp4212
a(I14
I42
I01
tp4213
a(I72
I82
I00
tp4214
a(I32
I83
I01
tp4215
a(I83
I81
I00
tp4216
a(I30
I11
I01
tp4217
a(I57
I56
I01
tp4218
a(I4
I51
I00
tp4219
a(I4
I50
I00
tp4220
a(I41
I48
I00
tp4221
a(I73
I48
I00
tp4222
a(I29
I48
I00
tp4223
a(I46
I82
I01
tp4224
a(I27
I83
I01
tp4225
a(I42
I39
I00
tp4226
a(I14
I23
I01
tp4227
a(I32
I83
I00
tp4228
a(I14
I42
I00
tp4229
a(I57
I56
I00
tp4230
a(I38
I37
I01
tp4231
a(I30
I11
I00
tp4232
a(I12
I20
I01
tp4233
a(I40
I20
I01
tp4234
a(I25
I11
I01
tp4235
a(I74
I83
I01
tp4236
a(I46
I82
I00
tp4237
a(I27
I83
I00
tp4238
a(I32
I39
I01
tp4239
a(I38
I37
I00
tp4240
a(I14
I23
I00
tp4241
a(I77
I83
I01
tp4242
a(I12
I20
I00
tp4243
a(I40
I20
I00
tp4244
a(I25
I11
I00
tp4245
a(I74
I83
I00
tp4246
a(I21
I57
I01
tp4247
a(I27
I39
I01
tp4248
a(I32
I39
I00
tp4249
a(I77
I83
I00
tp4250
a(I74
I39
I01
tp4251
a(I21
I57
I00
tp4252
a(I27
I39
I00
tp4253
a(I77
I39
I01
tp4254
a(I31
I83
I01
tp4255
a(I26
I20
I01
tp4256
a(I74
I39
I00
tp4257
a(I78
I47
I01
tp4258
a(I30
I57
I01
tp4259
a(I11
I56
I01
tp4260
a(I22
I20
I01
tp4261
a(I13
I49
I01
tp4262
a(I13
I24
I01
tp4263
a(I77
I39
I00
tp4264
a(I26
I20
I00
tp4265
a(I31
I83
I00
tp4266
a(I72
I20
I01
tp4267
a(I11
I56
I00
tp4268
a(I78
I47
I00
tp4269
a(I30
I57
I00
tp4270
a(I25
I57
I01
tp4271
a(I22
I20
I00
tp4272
a(I78
I48
I01
tp4273
a(I76
I24
I01
tp4274
a(I76
I49
I01
tp4275
a(I13
I24
I00
tp4276
a(I13
I49
I00
tp4277
a(I4
I46
I01
tp4278
a(I31
I39
I01
tp4279
a(I24
I80
I01
tp4280
a(I49
I80
I01
tp4281
a(I72
I20
I00
tp4282
a(I25
I57
I00
tp4283
a(I78
I48
I00
tp4284
a(I76
I24
I00
tp4285
a(I76
I49
I00
tp4286
a(I46
I20
I01
tp4287
a(I4
I46
I00
tp4288
a(I31
I39
I00
tp4289
a(I51
I82
I01
tp4290
a(I50
I82
I01
tp4291
a(I24
I80
I00
tp4292
a(I49
I80
I00
tp4293
a(I4
I72
I01
tp4294
a(I46
I20
I00
tp4295
a(I4
I22
I01
tp4296
a(I51
I82
I00
tp4297
a(I50
I82
I00
tp4298
a(I12
I11
I01
tp4299
a(I40
I11
I01
tp4300
a(I4
I26
I01
tp4301
a(I4
I72
I00
tp4302
a(I4
I22
I00
tp4303
a(I40
I11
I00
tp4304
a(I12
I11
I00
tp4305
a(I4
I26
I00
tp4306
a(I57
I19
I01
tp4307
a(I23
I79
I01
tp4308
a(I52
I37
I01
tp4309
a(I57
I19
I00
tp4310
a(I45
I83
I01
tp4311
a(I42
I79
I01
tp4312
a(I23
I79
I00
tp4313
a(I52
I37
I00
tp4314
a(I44
I49
I01
tp4315
a(I44
I24
I01
tp4316
a(I73
I82
I01
tp4317
a(I41
I82
I01
tp4318
a(I29
I82
I01
tp4319
a(I26
I11
I01
tp4320
a(I33
I24
I01
tp4321
a(I33
I49
I01
tp4322
a(I4
I12
I01
tp4323
a(I4
I40
I01
tp4324
a(I20
I56
I01
tp4325
a(I45
I83
I00
tp4326
a(I22
I11
I01
tp4327
a(I42
I79
I00
tp4328
a(I44
I24
I00
tp4329
a(I44
I49
I00
tp4330
a(I41
I82
I00
tp4331
a(I29
I82
I00
tp4332
a(I73
I82
I00
tp4333
a(I72
I11
I01
tp4334
a(I26
I11
I00
tp4335
a(I14
I78
I01
tp4336
a(I45
I39
I01
tp4337
a(I40
I57
I01
tp4338
a(I12
I57
I01
tp4339
a(I20
I56
I00
tp4340
a(I33
I24
I00
tp4341
a(I33
I49
I00
tp4342
a(I4
I12
I00
tp4343
a(I4
I40
I00
tp4344
a(I22
I11
I00
tp4345
a(I28
I83
I01
tp4346
a(I32
I79
I01
tp4347
a(I50
I20
I01
tp4348
a(I72
I11
I00
tp4349
a(I51
I20
I01
tp4350
a(I45
I39
I00
tp4351
a(I40
I57
I00
tp4352
a(I12
I57
I00
tp4353
a(I14
I78
I00
tp4354
a(I27
I79
I01
tp4355
a(I28
I83
I00
tp4356
a(I11
I19
I01
tp4357
a(I46
I11
I01
tp4358
a(I32
I79
I00
tp4359
a(I5
I33
I01
tp4360
a(I74
I79
I01
tp4361
a(I51
I20
I00
tp4362
a(I50
I20
I00
tp4363
a(I28
I39
I01
tp4364
a(I5
I44
I01
tp4365
a(I27
I79
I00
tp4366
a(I11
I19
I00
tp4367
a(I46
I11
I00
tp4368
a(I77
I79
I01
tp4369
a(I74
I79
I00
tp4370
a(I5
I33
I00
tp4371
a(I26
I57
I01
tp4372
a(I28
I39
I00
tp4373
a(I23
I47
I01
tp4374
a(I22
I57
I01
tp4375
a(I5
I44
I00
tp4376
a(I77
I79
I00
tp4377
a(I72
I57
I01
tp4378
a(I26
I57
I00
tp4379
a(I42
I47
I01
tp4380
a(I22
I57
I00
tp4381
a(I23
I47
I00
tp4382
a(I23
I48
I01
tp4383
a(I31
I79
I01
tp4384
a(I78
I82
I01
tp4385
a(I41
I20
I01
tp4386
a(I73
I20
I01
tp4387
a(I29
I20
I01
tp4388
a(I72
I57
I00
tp4389
a(I82
I56
I01
tp4390
a(I42
I47
I00
tp4391
a(I46
I57
I01
tp4392
a(I42
I48
I01
tp4393
a(I23
I48
I00
tp4394
a(I31
I79
I00
tp4395
a(I4
I25
I01
tp4396
a(I78
I82
I00
tp4397
a(I14
I73
I01
tp4398
a(I41
I20
I00
tp4399
a(I14
I41
I01
tp4400
a(I73
I20
I00
tp4401
a(I14
I29
I01
tp4402
a(I29
I20
I00
tp4403
a(I82
I56
I00
tp4404
a(I32
I47
I01
tp4405
a(I46
I57
I00
tp4406
a(I42
I48
I00
tp4407
a(I4
I30
I01
tp4408
a(I4
I25
I00
tp4409
a(I27
I47
I01
tp4410
a(I14
I73
I00
tp4411
a(I14
I41
I00
tp4412
a(I14
I29
I00
tp4413
a(I5
I76
I01
tp4414
a(I32
I47
I00
tp4415
a(I32
I48
I01
tp4416
a(I74
I47
I01
tp4417
a(I50
I11
I01
tp4418
a(I51
I11
I01
tp4419
a(I4
I30
I00
tp4420
a(I5
I13
I01
tp4421
a(I27
I47
I00
tp4422
a(I20
I19
I01
tp4423
a(I27
I48
I01
tp4424
a(I77
I47
I01
tp4425
a(I5
I76
I00
tp4426
a(I32
I48
I00
tp4427
a(I4
I21
I01
tp4428
a(I51
I11
I00
tp4429
a(I50
I11
I00
tp4430
a(I74
I47
I00
tp4431
a(I74
I48
I01
tp4432
a(I3
I80
I01
tp4433
a(I20
I19
I00
tp4434
a(I27
I48
I00
tp4435
a(I5
I13
I00
tp4436
a(I77
I47
I00
tp4437
a(I77
I48
I01
tp4438
a(I49
I52
I01
tp4439
a(I24
I52
I01
tp4440
a(I14
I51
I01
tp4441
a(I14
I50
I01
tp4442
a(I4
I21
I00
tp4443
a(I74
I48
I00
tp4444
a(I3
I80
I00
tp4445
a(I31
I47
I01
tp4446
a(I77
I48
I00
tp4447
a(I45
I79
I01
tp4448
a(I24
I52
I00
tp4449
a(I49
I52
I00
tp4450
a(I78
I20
I01
tp4451
a(I14
I51
I00
tp4452
a(I14
I50
I00
tp4453
a(I31
I47
I00
tp4454
a(I31
I48
I01
tp4455
a(I75
I83
I01
tp4456
a(I73
I11
I01
tp4457
a(I29
I11
I01
tp4458
a(I41
I11
I01
tp4459
a(I50
I57
I01
tp4460
a(I51
I57
I01
tp4461
a(I45
I79
I00
tp4462
a(I78
I20
I00
tp4463
a(I28
I79
I01
tp4464
a(I31
I48
I00
tp4465
a(I29
I11
I00
tp4466
a(I41
I11
I00
tp4467
a(I73
I11
I00
tp4468
a(I75
I83
I00
tp4469
a(I50
I57
I00
tp4470
a(I51
I57
I00
tp4471
a(I80
I37
I01
tp4472
a(I75
I39
I01
tp4473
a(I28
I79
I00
tp4474
a(I82
I19
I01
tp4475
a(I80
I37
I00
tp4476
a(I4
I3
I01
tp4477
a(I75
I39
I00
tp4478
a(I21
I80
I01
tp4479
a(I82
I19
I00
tp4480
a(I4
I3
I00
tp4481
a(I73
I57
I01
tp4482
a(I41
I57
I01
tp4483
a(I29
I57
I01
tp4484
a(I23
I82
I01
tp4485
a(I21
I80
I00
tp4486
a(I14
I46
I01
tp4487
a(I45
I47
I01
tp4488
a(I48
I56
I01
tp4489
a(I30
I80
I01
tp4490
a(I42
I82
I01
tp4491
a(I73
I57
I00
tp4492
a(I41
I57
I00
tp4493
a(I29
I57
I00
tp4494
a(I23
I82
I00
tp4495
a(I14
I46
I00
tp4496
a(I48
I56
I00
tp4497
a(I78
I11
I01
tp4498
a(I14
I72
I01
tp4499
a(I25
I80
I01
tp4500
a(I45
I48
I01
tp4501
a(I45
I47
I00
tp4502
a(I47
I56
I01
tp4503
a(I30
I80
I00
tp4504
a(I42
I82
I00
tp4505
a(I49
I38
I01
tp4506
a(I24
I38
I01
tp4507
a(I14
I22
I01
tp4508
a(I28
I47
I01
tp4509
a(I14
I26
I01
tp4510
a(I47
I56
I00
tp4511
a(I78
I11
I00
tp4512
a(I25
I80
I00
tp4513
a(I32
I82
I01
tp4514
a(I45
I48
I00
tp4515
a(I14
I72
I00
tp4516
a(I49
I38
I00
tp4517
a(I24
I38
I00
tp4518
a(I27
I82
I01
tp4519
a(I14
I22
I00
tp4520
a(I28
I48
I01
tp4521
a(I28
I47
I00
tp4522
a(I14
I26
I00
tp4523
a(I32
I82
I00
tp4524
a(I74
I82
I01
tp4525
a(I27
I82
I00
tp4526
a(I77
I82
I01
tp4527
a(I28
I48
I00
tp4528
a(I74
I82
I00
tp4529
a(I14
I12
I01
tp4530
a(I14
I40
I01
tp4531
a(I78
I57
I01
tp4532
a(I23
I20
I01
tp4533
a(I77
I82
I00
tp4534
a(I24
I81
I01
tp4535
a(I49
I81
I01
tp4536
a(I42
I20
I01
tp4537
a(I31
I82
I01
tp4538
a(I78
I57
I00
tp4539
a(I14
I40
I00
tp4540
a(I14
I12
I00
tp4541
a(I23
I20
I00
tp4542
a(I49
I81
I00
tp4543
a(I24
I81
I00
tp4544
a(I79
I56
I01
tp4545
a(I5
I75
I01
tp4546
a(I42
I20
I00
tp4547
a(I75
I79
I01
tp4548
a(I31
I82
I00
tp4549
a(I12
I80
I01
tp4550
a(I40
I80
I01
tp4551
a(I79
I56
I00
tp4552
a(I3
I52
I01
tp4553
a(I32
I20
I01
tp4554
a(I5
I75
I00
tp4555
a(I75
I79
I00
tp4556
a(I48
I19
I01
tp4557
a(I27
I20
I01
tp4558
a(I40
I80
I00
tp4559
a(I12
I80
I00
tp4560
a(I3
I52
I00
tp4561
a(I32
I20
I00
tp4562
a(I74
I20
I01
tp4563
a(I81
I55
I01
tp4564
a(I48
I19
I00
tp4565
a(I47
I19
I01
tp4566
a(I27
I20
I00
tp4567
a(I77
I20
I01
tp4568
a(I26
I80
I01
tp4569
a(I13
I83
I01
tp4570
a(I81
I55
I00
tp4571
a(I74
I20
I00
tp4572
a(I22
I80
I01
tp4573
a(I47
I19
I00
tp4574
a(I77
I20
I00
tp4575
a(I76
I83
I01
tp4576
a(I14
I25
I01
tp4577
a(I72
I80
I01
tp4578
a(I26
I80
I00
tp4579
a(I23
I11
I01
tp4580
a(I13
I83
I00
tp4581
a(I22
I80
I00
tp4582
a(I31
I20
I01
tp4583
a(I45
I82
I01
tp4584
a(I13
I39
I01
tp4585
a(I14
I30
I01
tp4586
a(I4
I24
I01
tp4587
a(I4
I49
I01
tp4588
a(I72
I80
I00
tp4589
a(I76
I83
I00
tp4590
a(I42
I11
I01
tp4591
a(I14
I25
I00
tp4592
a(I46
I80
I01
tp4593
a(I23
I11
I00
tp4594
a(I75
I47
I01
tp4595
a(I76
I39
I01
tp4596
a(I31
I20
I00
tp4597
a(I45
I82
I00
tp4598
a(I38
I55
I01
tp4599
a(I21
I52
I01
tp4600
a(I13
I39
I00
tp4601
a(I14
I30
I00
tp4602
a(I4
I49
I00
tp4603
a(I42
I11
I00
tp4604
a(I4
I24
I00
tp4605
a(I46
I80
I00
tp4606
a(I28
I82
I01
tp4607
a(I75
I48
I01
tp4608
a(I14
I21
I01
tp4609
a(I75
I47
I00
tp4610
a(I76
I39
I00
tp4611
a(I38
I55
I00
tp4612
a(I32
I11
I01
tp4613
a(I21
I52
I00
tp4614
a(I27
I11
I01
tp4615
a(I28
I82
I00
tp4616
a(I30
I52
I01
tp4617
a(I75
I48
I00
tp4618
a(I79
I19
I01
tp4619
a(I14
I21
I00
tp4620
a(I23
I57
I01
tp4621
a(I32
I11
I00
tp4622
a(I74
I11
I01
tp4623
a(I3
I38
I01
tp4624
a(I44
I83
I01
tp4625
a(I25
I52
I01
tp4626
a(I27
I11
I00
tp4627
a(I79
I19
I00
tp4628
a(I30
I52
I00
tp4629
a(I77
I11
I01
tp4630
a(I42
I57
I01
tp4631
a(I33
I83
I01
tp4632
a(I23
I57
I00
tp4633
a(I39
I56
I01
tp4634
a(I74
I11
I00
tp4635
a(I3
I38
I00
tp4636
a(I25
I52
I00
tp4637
a(I44
I83
I00
tp4638
a(I77
I11
I00
tp4639
a(I45
I20
I01
tp4640
a(I42
I57
I00
tp4641
a(I44
I39
I01
tp4642
a(I5
I28
I01
tp4643
a(I33
I83
I00
tp4644
a(I39
I56
I00
tp4645
a(I33
I39
I01
tp4646
a(I31
I11
I01
tp4647
a(I32
I57
I01
tp4648
a(I83
I56
I01
tp4649
a(I51
I80
I01
tp4650
a(I50
I80
I01
tp4651
a(I45
I20
I00
tp4652
a(I27
I57
I01
tp4653
a(I44
I39
I00
tp4654
a(I5
I28
I00
tp4655
a(I14
I3
I01
tp4656
a(I33
I39
I00
tp4657
a(I28
I20
I01
tp4658
a(I31
I11
I00
tp4659
a(I32
I57
I00
tp4660
a(I74
I57
I01
tp4661
a(I5
I45
I01
tp4662
a(I83
I56
I00
tp4663
a(I3
I81
I01
tp4664
a(I50
I80
I00
tp4665
a(I51
I80
I00
tp4666
a(I27
I57
I00
tp4667
a(I57
I37
I01
tp4668
a(I77
I57
I01
tp4669
a(I74
I57
I00
tp4670
a(I28
I20
I00
tp4671
a(I14
I3
I00
tp4672
a(I3
I81
I00
tp4673
a(I5
I45
I00
tp4674
a(I57
I37
I00
tp4675
a(I52
I55
I01
tp4676
a(I21
I38
I01
tp4677
a(I77
I57
I00
tp4678
a(I31
I57
I01
tp4679
a(I13
I79
I01
tp4680
a(I52
I55
I00
tp4681
a(I29
I80
I01
tp4682
a(I41
I80
I01
tp4683
a(I73
I80
I01
tp4684
a(I40
I52
I01
tp4685
a(I12
I52
I01
tp4686
a(I21
I38
I00
tp4687
a(I76
I79
I01
tp4688
a(I30
I38
I01
tp4689
a(I31
I57
I00
tp4690
a(I13
I79
I00
tp4691
a(I29
I80
I00
tp4692
a(I41
I80
I00
tp4693
a(I73
I80
I00
tp4694
a(I40
I52
I00
tp4695
a(I12
I52
I00
tp4696
a(I11
I37
I01
tp4697
a(I45
I11
I01
tp4698
a(I25
I38
I01
tp4699
a(I76
I79
I00
tp4700
a(I30
I38
I00
tp4701
a(I75
I82
I01
tp4702
a(I11
I37
I00
tp4703
a(I21
I81
I01
tp4704
a(I26
I52
I01
tp4705
a(I39
I19
I01
tp4706
a(I45
I11
I00
tp4707
a(I25
I38
I00
tp4708
a(I5
I31
I01
tp4709
a(I22
I52
I01
tp4710
a(I75
I82
I00
tp4711
a(I28
I11
I01
tp4712
a(I72
I52
I01
tp4713
a(I21
I81
I00
tp4714
a(I26
I52
I00
tp4715
a(I39
I19
I00
tp4716
a(I22
I52
I00
tp4717
a(I30
I81
I01
tp4718
a(I83
I19
I01
tp4719
a(I5
I31
I00
tp4720
a(I28
I11
I00
tp4721
a(I5
I77
I01
tp4722
a(I72
I52
I00
tp4723
a(I46
I52
I01
tp4724
a(I13
I47
I01
tp4725
a(I44
I79
I01
tp4726
a(I45
I57
I01
tp4727
a(I25
I81
I01
tp4728
a(I78
I80
I01
tp4729
a(I5
I74
I01
tp4730
a(I83
I19
I00
tp4731
a(I33
I79
I01
tp4732
a(I30
I81
I00
tp4733
a(I76
I47
I01
tp4734
a(I5
I27
I01
tp4735
a(I46
I52
I00
tp4736
a(I13
I48
I01
tp4737
a(I5
I77
I00
tp4738
a(I13
I47
I00
tp4739
a(I25
I81
I00
tp4740
a(I44
I79
I00
tp4741
a(I45
I57
I00
tp4742
a(I5
I32
I01
tp4743
a(I78
I80
I00
tp4744
a(I76
I48
I01
tp4745
a(I33
I79
I00
tp4746
a(I5
I74
I00
tp4747
a(I28
I57
I01
tp4748
a(I76
I47
I00
tp4749
a(I13
I48
I00
tp4750
a(I75
I20
I01
tp4751
a(I5
I27
I00
tp4752
a(I20
I37
I01
tp4753
a(I40
I38
I01
tp4754
a(I12
I38
I01
tp4755
a(I5
I32
I00
tp4756
a(I76
I48
I00
tp4757
a(I5
I42
I01
tp4758
a(I28
I57
I00
tp4759
a(I20
I37
I00
tp4760
a(I75
I20
I00
tp4761
a(I40
I38
I00
tp4762
a(I12
I38
I00
tp4763
a(I5
I23
I01
tp4764
a(I5
I42
I00
tp4765
a(I26
I38
I01
tp4766
a(I44
I47
I01
tp4767
a(I51
I52
I01
tp4768
a(I50
I52
I01
tp4769
a(I22
I38
I01
tp4770
a(I14
I24
I01
tp4771
a(I14
I49
I01
tp4772
a(I33
I47
I01
tp4773
a(I5
I23
I00
tp4774
a(I72
I38
I01
tp4775
a(I12
I81
I01
tp4776
a(I40
I81
I01
tp4777
a(I44
I48
I01
tp4778
a(I26
I38
I00
tp4779
a(I44
I47
I00
tp4780
a(I33
I48
I01
tp4781
a(I50
I52
I00
tp4782
a(I51
I52
I00
tp4783
a(I22
I38
I00
tp4784
a(I14
I49
I00
tp4785
a(I14
I24
I00
tp4786
a(I33
I47
I00
tp4787
a(I72
I38
I00
tp4788
a(I46
I38
I01
tp4789
a(I12
I81
I00
tp4790
a(I40
I81
I00
tp4791
a(I44
I48
I00
tp4792
a(I82
I37
I01
tp4793
a(I80
I55
I01
tp4794
a(I33
I48
I00
tp4795
a(I75
I11
I01
tp4796
a(I46
I38
I00
tp4797
a(I26
I81
I01
tp4798
a(I29
I52
I01
tp4799
a(I73
I52
I01
tp4800
a(I41
I52
I01
tp4801
a(I80
I55
I00
tp4802
a(I22
I81
I01
tp4803
a(I82
I37
I00
tp4804
a(I72
I81
I01
tp4805
a(I75
I11
I00
tp4806
a(I23
I80
I01
tp4807
a(I26
I81
I00
tp4808
a(I29
I52
I00
tp4809
a(I73
I52
I00
tp4810
a(I41
I52
I00
tp4811
a(I22
I81
I00
tp4812
a(I72
I81
I00
tp4813
a(I46
I81
I01
tp4814
a(I42
I80
I01
tp4815
a(I13
I82
I01
tp4816
a(I23
I80
I00
tp4817
a(I76
I82
I01
tp4818
a(I75
I57
I01
tp4819
a(I46
I81
I00
tp4820
a(I42
I80
I00
tp4821
a(I13
I82
I00
tp4822
a(I32
I80
I01
tp4823
a(I50
I38
I01
tp4824
a(I51
I38
I01
tp4825
a(I76
I82
I00
tp4826
a(I27
I80
I01
tp4827
a(I75
I57
I00
tp4828
a(I74
I80
I01
tp4829
a(I5
I78
I01
tp4830
a(I32
I80
I00
tp4831
a(I78
I52
I01
tp4832
a(I50
I38
I00
tp4833
a(I51
I38
I00
tp4834
a(I77
I80
I01
tp4835
a(I27
I80
I00
tp4836
a(I74
I80
I00
tp4837
a(I78
I52
I00
tp4838
a(I5
I78
I00
tp4839
a(I77
I80
I00
tp4840
a(I31
I80
I01
tp4841
a(I44
I82
I01
tp4842
a(I13
I20
I01
tp4843
a(I4
I83
I01
tp4844
a(I41
I38
I01
tp4845
a(I29
I38
I01
tp4846
a(I73
I38
I01
tp4847
a(I50
I81
I01
tp4848
a(I51
I81
I01
tp4849
a(I33
I82
I01
tp4850
a(I76
I20
I01
tp4851
a(I31
I80
I00
tp4852
a(I44
I82
I00
tp4853
a(I13
I20
I00
tp4854
a(I73
I38
I00
tp4855
a(I41
I38
I00
tp4856
a(I29
I38
I00
tp4857
a(I51
I81
I00
tp4858
a(I50
I81
I00
tp4859
a(I48
I37
I01
tp4860
a(I4
I83
I00
tp4861
a(I4
I39
I01
tp4862
a(I33
I82
I00
tp4863
a(I76
I20
I00
tp4864
a(I47
I37
I01
tp4865
a(I48
I37
I00
tp4866
a(I5
I29
I01
tp4867
a(I5
I73
I01
tp4868
a(I5
I41
I01
tp4869
a(I4
I39
I00
tp4870
a(I41
I81
I01
tp4871
a(I29
I81
I01
tp4872
a(I73
I81
I01
tp4873
a(I47
I37
I00
tp4874
a(I5
I73
I00
tp4875
a(I5
I41
I00
tp4876
a(I5
I29
I00
tp4877
a(I73
I81
I00
tp4878
a(I41
I81
I00
tp4879
a(I29
I81
I00
tp4880
a(I44
I20
I01
tp4881
a(I45
I80
I01
tp4882
a(I78
I38
I01
tp4883
a(I33
I20
I01
tp4884
a(I49
I56
I01
tp4885
a(I24
I56
I01
tp4886
a(I13
I11
I01
tp4887
a(I5
I50
I01
tp4888
a(I5
I51
I01
tp4889
a(I44
I20
I00
tp4890
a(I76
I11
I01
tp4891
a(I45
I80
I00
tp4892
a(I78
I38
I00
tp4893
a(I24
I56
I00
tp4894
a(I49
I56
I00
tp4895
a(I33
I20
I00
tp4896
a(I28
I80
I01
tp4897
a(I13
I11
I00
tp4898
a(I23
I52
I01
tp4899
a(I79
I37
I01
tp4900
a(I5
I50
I00
tp4901
a(I5
I51
I00
tp4902
a(I76
I11
I00
tp4903
a(I42
I52
I01
tp4904
a(I28
I80
I00
tp4905
a(I78
I81
I01
tp4906
a(I23
I52
I00
tp4907
a(I79
I37
I00
tp4908
a(I13
I57
I01
tp4909
a(I42
I52
I00
tp4910
a(I32
I52
I01
tp4911
a(I78
I81
I00
tp4912
a(I76
I57
I01
tp4913
a(I27
I52
I01
tp4914
a(I4
I79
I01
tp4915
a(I13
I57
I00
tp4916
a(I44
I11
I01
tp4917
a(I74
I52
I01
tp4918
a(I33
I11
I01
tp4919
a(I32
I52
I00
tp4920
a(I5
I46
I01
tp4921
a(I76
I57
I00
tp4922
a(I77
I52
I01
tp4923
a(I27
I52
I00
tp4924
a(I4
I79
I00
tp4925
a(I44
I11
I00
tp4926
a(I74
I52
I00
tp4927
a(I57
I55
I01
tp4928
a(I5
I72
I01
tp4929
a(I33
I11
I00
tp4930
a(I77
I52
I00
tp4931
a(I5
I46
I00
tp4932
a(I49
I19
I01
tp4933
a(I24
I19
I01
tp4934
a(I5
I22
I01
tp4935
a(I31
I52
I01
tp4936
a(I5
I26
I01
tp4937
a(I57
I55
I00
tp4938
a(I44
I57
I01
tp4939
a(I5
I72
I00
tp4940
a(I24
I19
I00
tp4941
a(I49
I19
I00
tp4942
a(I23
I38
I01
tp4943
a(I33
I57
I01
tp4944
a(I31
I52
I00
tp4945
a(I5
I22
I00
tp4946
a(I5
I26
I00
tp4947
a(I42
I38
I01
tp4948
a(I4
I47
I01
tp4949
a(I44
I57
I00
tp4950
a(I23
I38
I00
tp4951
a(I5
I40
I01
tp4952
a(I5
I12
I01
tp4953
a(I11
I55
I01
tp4954
a(I33
I57
I00
tp4955
a(I39
I37
I01
tp4956
a(I75
I80
I01
tp4957
a(I4
I48
I01
tp4958
a(I42
I38
I00
tp4959
a(I32
I38
I01
tp4960
a(I4
I47
I00
tp4961
a(I11
I55
I00
tp4962
a(I27
I38
I01
tp4963
a(I5
I12
I00
tp4964
a(I5
I40
I00
tp4965
a(I39
I37
I00
tp4966
a(I23
I81
I01
tp4967
a(I75
I80
I00
tp4968
a(I83
I37
I01
tp4969
a(I4
I48
I00
tp4970
a(I74
I38
I01
tp4971
a(I3
I56
I01
tp4972
a(I45
I52
I01
tp4973
a(I32
I38
I00
tp4974
a(I42
I81
I01
tp4975
a(I77
I38
I01
tp4976
a(I14
I83
I01
tp4977
a(I27
I38
I00
tp4978
a(I83
I37
I00
tp4979
a(I23
I81
I00
tp4980
a(I74
I38
I00
tp4981
a(I3
I56
I00
tp4982
a(I45
I52
I00
tp4983
a(I28
I52
I01
tp4984
a(I42
I81
I00
tp4985
a(I77
I38
I00
tp4986
a(I32
I81
I01
tp4987
a(I31
I38
I01
tp4988
a(I14
I39
I01
tp4989
a(I14
I83
I00
tp4990
a(I27
I81
I01
tp4991
a(I74
I81
I01
tp4992
a(I5
I25
I01
tp4993
a(I28
I52
I00
tp4994
a(I20
I55
I01
tp4995
a(I32
I81
I00
tp4996
a(I31
I38
I00
tp4997
a(I77
I81
I01
tp4998
a(I14
I39
I00
tp4999
a(I5
I30
I01
tp5000
a(I27
I81
I00
tp5001
a(I20
I55
I00
tp5002
a(I74
I81
I00
tp5003
a(I21
I56
I01
tp5004
a(I5
I25
I00
tp5005
a(I77
I81
I00
tp5006
a(I31
I81
I01
tp5007
a(I5
I21
I01
tp5008
a(I5
I30
I00
tp5009
a(I21
I56
I00
tp5010
a(I30
I56
I01
tp5011
a(I31
I81
I00
tp5012
a(I25
I56
I01
tp5013
a(I45
I38
I01
tp5014
a(I3
I19
I01
tp5015
a(I5
I21
I00
tp5016
a(I4
I82
I01
tp5017
a(I30
I56
I00
tp5018
a(I82
I55
I01
tp5019
a(I25
I56
I00
tp5020
a(I45
I38
I00
tp5021
a(I3
I19
I00
tp5022
a(I28
I38
I01
tp5023
a(I4
I82
I00
tp5024
a(I82
I55
I00
tp5025
a(I5
I3
I01
tp5026
a(I28
I38
I00
tp5027
a(I45
I81
I01
tp5028
a(I14
I79
I01
tp5029
a(I75
I52
I01
tp5030
a(I13
I80
I01
tp5031
a(I76
I80
I01
tp5032
a(I45
I81
I00
tp5033
a(I21
I19
I01
tp5034
a(I28
I81
I01
tp5035
a(I5
I3
I00
tp5036
a(I4
I20
I01
tp5037
a(I40
I56
I01
tp5038
a(I12
I56
I01
tp5039
a(I14
I79
I00
tp5040
a(I75
I52
I00
tp5041
a(I13
I80
I00
tp5042
a(I76
I80
I00
tp5043
a(I21
I19
I00
tp5044
a(I28
I81
I00
tp5045
a(I30
I19
I01
tp5046
a(I40
I56
I00
tp5047
a(I12
I56
I00
tp5048
a(I4
I20
I00
tp5049
a(I25
I19
I01
tp5050
a(I26
I56
I01
tp5051
a(I30
I19
I00
tp5052
a(I22
I56
I01
tp5053
a(I14
I47
I01
tp5054
a(I72
I56
I01
tp5055
a(I25
I19
I00
tp5056
a(I44
I80
I01
tp5057
a(I33
I80
I01
tp5058
a(I26
I56
I00
tp5059
a(I14
I48
I01
tp5060
a(I22
I56
I00
tp5061
a(I46
I56
I01
tp5062
a(I72
I56
I00
tp5063
a(I14
I47
I00
tp5064
a(I48
I55
I01
tp5065
a(I44
I80
I00
tp5066
a(I33
I80
I00
tp5067
a(I4
I11
I01
tp5068
a(I75
I38
I01
tp5069
a(I14
I48
I00
tp5070
a(I47
I55
I01
tp5071
a(I46
I56
I00
tp5072
a(I48
I55
I00
tp5073
a(I75
I38
I00
tp5074
a(I4
I11
I00
tp5075
a(I47
I55
I00
tp5076
a(I12
I19
I01
tp5077
a(I40
I19
I01
tp5078
a(I75
I81
I01
tp5079
a(I4
I57
I01
tp5080
a(I12
I19
I00
tp5081
a(I40
I19
I00
tp5082
a(I50
I56
I01
tp5083
a(I51
I56
I01
tp5084
a(I26
I19
I01
tp5085
a(I22
I19
I01
tp5086
a(I5
I49
I01
tp5087
a(I5
I24
I01
tp5088
a(I75
I81
I00
tp5089
a(I72
I19
I01
tp5090
a(I4
I57
I00
tp5091
a(I79
I55
I01
tp5092
a(I51
I56
I00
tp5093
a(I50
I56
I00
tp5094
a(I26
I19
I00
tp5095
a(I13
I52
I01
tp5096
a(I22
I19
I00
tp5097
a(I46
I19
I01
tp5098
a(I5
I49
I00
tp5099
a(I5
I24
I00
tp5100
a(I72
I19
I00
tp5101
a(I79
I55
I00
tp5102
a(I76
I52
I01
tp5103
a(I29
I56
I01
tp5104
a(I73
I56
I01
tp5105
a(I41
I56
I01
tp5106
a(I13
I52
I00
tp5107
a(I46
I19
I00
tp5108
a(I14
I82
I01
tp5109
a(I76
I52
I00
tp5110
a(I73
I56
I00
tp5111
a(I29
I56
I00
tp5112
a(I41
I56
I00
tp5113
a(I14
I82
I00
tp5114
a(I49
I37
I01
tp5115
a(I24
I37
I01
tp5116
a(I44
I52
I01
tp5117
a(I33
I52
I01
tp5118
a(I51
I19
I01
tp5119
a(I50
I19
I01
tp5120
a(I49
I37
I00
tp5121
a(I24
I37
I00
tp5122
a(I78
I56
I01
tp5123
a(I44
I52
I00
tp5124
a(I14
I20
I01
tp5125
a(I33
I52
I00
tp5126
a(I13
I38
I01
tp5127
a(I50
I19
I00
tp5128
a(I51
I19
I00
tp5129
a(I76
I38
I01
tp5130
a(I78
I56
I00
tp5131
a(I39
I55
I01
tp5132
a(I14
I20
I00
tp5133
a(I41
I19
I01
tp5134
a(I73
I19
I01
tp5135
a(I13
I38
I00
tp5136
a(I29
I19
I01
tp5137
a(I76
I38
I00
tp5138
a(I83
I55
I01
tp5139
a(I39
I55
I00
tp5140
a(I13
I81
I01
tp5141
a(I41
I19
I00
tp5142
a(I73
I19
I00
tp5143
a(I29
I19
I00
tp5144
a(I76
I81
I01
tp5145
a(I83
I55
I00
tp5146
a(I44
I38
I01
tp5147
a(I13
I81
I00
tp5148
a(I33
I38
I01
tp5149
a(I14
I11
I01
tp5150
a(I76
I81
I00
tp5151
a(I78
I19
I01
tp5152
a(I44
I38
I00
tp5153
a(I33
I38
I00
tp5154
a(I14
I11
I00
tp5155
a(I44
I81
I01
tp5156
a(I78
I19
I00
tp5157
a(I23
I56
I01
tp5158
a(I33
I81
I01
tp5159
a(I14
I57
I01
tp5160
a(I42
I56
I01
tp5161
a(I3
I37
I01
tp5162
a(I44
I81
I00
tp5163
a(I23
I56
I00
tp5164
a(I33
I81
I00
tp5165
a(I4
I80
I01
tp5166
a(I14
I57
I00
tp5167
a(I32
I56
I01
tp5168
a(I42
I56
I00
tp5169
a(I3
I37
I00
tp5170
a(I27
I56
I01
tp5171
a(I74
I56
I01
tp5172
a(I4
I80
I00
tp5173
a(I77
I56
I01
tp5174
a(I32
I56
I00
tp5175
a(I27
I56
I00
tp5176
a(I74
I56
I00
tp5177
a(I31
I56
I01
tp5178
a(I21
I37
I01
tp5179
a(I77
I56
I00
tp5180
a(I23
I19
I01
tp5181
a(I30
I37
I01
tp5182
a(I21
I37
I00
tp5183
a(I31
I56
I00
tp5184
a(I42
I19
I01
tp5185
a(I25
I37
I01
tp5186
a(I23
I19
I00
tp5187
a(I30
I37
I00
tp5188
a(I32
I19
I01
tp5189
a(I25
I37
I00
tp5190
a(I42
I19
I00
tp5191
a(I27
I19
I01
tp5192
a(I45
I56
I01
tp5193
a(I74
I19
I01
tp5194
a(I77
I19
I01
tp5195
a(I32
I19
I00
tp5196
a(I5
I83
I01
tp5197
a(I27
I19
I00
tp5198
a(I28
I56
I01
tp5199
a(I45
I56
I00
tp5200
a(I74
I19
I00
tp5201
a(I31
I19
I01
tp5202
a(I5
I39
I01
tp5203
a(I77
I19
I00
tp5204
a(I40
I37
I01
tp5205
a(I12
I37
I01
tp5206
a(I5
I83
I00
tp5207
a(I28
I56
I00
tp5208
a(I4
I52
I01
tp5209
a(I31
I19
I00
tp5210
a(I5
I39
I00
tp5211
a(I12
I37
I00
tp5212
a(I40
I37
I00
tp5213
a(I26
I37
I01
tp5214
a(I22
I37
I01
tp5215
a(I4
I52
I00
tp5216
a(I72
I37
I01
tp5217
a(I26
I37
I00
tp5218
a(I46
I37
I01
tp5219
a(I45
I19
I01
tp5220
a(I22
I37
I00
tp5221
a(I72
I37
I00
tp5222
a(I28
I19
I01
tp5223
a(I46
I37
I00
tp5224
a(I45
I19
I00
tp5225
a(I14
I80
I01
tp5226
a(I28
I19
I00
tp5227
a(I75
I56
I01
tp5228
a(I4
I38
I01
tp5229
a(I5
I79
I01
tp5230
a(I14
I80
I00
tp5231
a(I24
I55
I01
tp5232
a(I49
I55
I01
tp5233
a(I51
I37
I01
tp5234
a(I50
I37
I01
tp5235
a(I75
I56
I00
tp5236
a(I4
I38
I00
tp5237
a(I5
I79
I00
tp5238
a(I49
I55
I00
tp5239
a(I24
I55
I00
tp5240
a(I4
I81
I01
tp5241
a(I51
I37
I00
tp5242
a(I50
I37
I00
tp5243
a(I73
I37
I01
tp5244
a(I29
I37
I01
tp5245
a(I41
I37
I01
tp5246
a(I5
I47
I01
tp5247
a(I4
I81
I00
tp5248
a(I5
I48
I01
tp5249
a(I41
I37
I00
tp5250
a(I29
I37
I00
tp5251
a(I73
I37
I00
tp5252
a(I5
I47
I00
tp5253
a(I75
I19
I01
tp5254
a(I5
I48
I00
tp5255
a(I75
I19
I00
tp5256
a(I78
I37
I01
tp5257
a(I14
I52
I01
tp5258
a(I78
I37
I00
tp5259
a(I13
I56
I01
tp5260
a(I3
I55
I01
tp5261
a(I76
I56
I01
tp5262
a(I14
I52
I00
tp5263
a(I13
I56
I00
tp5264
a(I3
I55
I00
tp5265
a(I5
I82
I01
tp5266
a(I76
I56
I00
tp5267
a(I5
I82
I00
tp5268
a(I44
I56
I01
tp5269
a(I21
I55
I01
tp5270
a(I33
I56
I01
tp5271
a(I14
I38
I01
tp5272
a(I23
I37
I01
tp5273
a(I30
I55
I01
tp5274
a(I42
I37
I01
tp5275
a(I21
I55
I00
tp5276
a(I44
I56
I00
tp5277
a(I5
I20
I01
tp5278
a(I25
I55
I01
tp5279
a(I13
I19
I01
tp5280
a(I33
I56
I00
tp5281
a(I23
I37
I00
tp5282
a(I14
I38
I00
tp5283
a(I76
I19
I01
tp5284
a(I32
I37
I01
tp5285
a(I30
I55
I00
tp5286
a(I42
I37
I00
tp5287
a(I27
I37
I01
tp5288
a(I14
I81
I01
tp5289
a(I25
I55
I00
tp5290
a(I74
I37
I01
tp5291
a(I13
I19
I00
tp5292
a(I5
I20
I00
tp5293
a(I77
I37
I01
tp5294
a(I76
I19
I00
tp5295
a(I32
I37
I00
tp5296
a(I27
I37
I00
tp5297
a(I14
I81
I00
tp5298
a(I74
I37
I00
tp5299
a(I31
I37
I01
tp5300
a(I77
I37
I00
tp5301
a(I44
I19
I01
tp5302
a(I33
I19
I01
tp5303
a(I5
I11
I01
tp5304
a(I40
I55
I01
tp5305
a(I12
I55
I01
tp5306
a(I31
I37
I00
tp5307
a(I44
I19
I00
tp5308
a(I33
I19
I00
tp5309
a(I40
I55
I00
tp5310
a(I12
I55
I00
tp5311
a(I26
I55
I01
tp5312
a(I5
I11
I00
tp5313
a(I22
I55
I01
tp5314
a(I72
I55
I01
tp5315
a(I5
I57
I01
tp5316
a(I45
I37
I01
tp5317
a(I26
I55
I00
tp5318
a(I46
I55
I01
tp5319
a(I22
I55
I00
tp5320
a(I72
I55
I00
tp5321
a(I28
I37
I01
tp5322
a(I5
I57
I00
tp5323
a(I45
I37
I00
tp5324
a(I46
I55
I00
tp5325
a(I28
I37
I00
tp5326
a(I51
I55
I01
tp5327
a(I50
I55
I01
tp5328
a(I50
I55
I00
tp5329
a(I51
I55
I00
tp5330
a(I29
I55
I01
tp5331
a(I73
I55
I01
tp5332
a(I41
I55
I01
tp5333
a(I75
I37
I01
tp5334
a(I29
I55
I00
tp5335
a(I73
I55
I00
tp5336
a(I41
I55
I00
tp5337
a(I75
I37
I00
tp5338
a(I4
I56
I01
tp5339
a(I78
I55
I01
tp5340
a(I4
I56
I00
tp5341
a(I78
I55
I00
tp5342
a(I5
I80
I01
tp5343
a(I4
I19
I01
tp5344
a(I5
I80
I00
tp5345
a(I23
I55
I01
tp5346
a(I4
I19
I00
tp5347
a(I42
I55
I01
tp5348
a(I13
I37
I01
tp5349
a(I76
I37
I01
tp5350
a(I23
I55
I00
tp5351
a(I32
I55
I01
tp5352
a(I27
I55
I01
tp5353
a(I42
I55
I00
tp5354
a(I13
I37
I00
tp5355
a(I74
I55
I01
tp5356
a(I76
I37
I00
tp5357
a(I77
I55
I01
tp5358
a(I32
I55
I00
tp5359
a(I27
I55
I00
tp5360
a(I44
I37
I01
tp5361
a(I31
I55
I01
tp5362
a(I74
I55
I00
tp5363
a(I33
I37
I01
tp5364
a(I77
I55
I00
tp5365
a(I31
I55
I00
tp5366
a(I44
I37
I00
tp5367
a(I33
I37
I00
tp5368
a(I14
I56
I01
tp5369
a(I5
I52
I01
tp5370
a(I45
I55
I01
tp5371
a(I14
I56
I00
tp5372
a(I5
I52
I00
tp5373
a(I28
I55
I01
tp5374
a(I45
I55
I00
tp5375
a(I28
I55
I00
tp5376
a(I5
I38
I01
tp5377
a(I14
I19
I01
tp5378
a(I14
I19
I00
tp5379
a(I5
I38
I00
tp5380
a(I5
I81
I01
tp5381
a(I75
I55
I01
tp5382
a(I5
I81
I00
tp5383
a(I75
I55
I00
tp5384
a(I4
I37
I01
tp5385
a(I4
I37
I00
tp5386
a(I13
I55
I01
tp5387
a(I76
I55
I01
tp5388
a(I13
I55
I00
tp5389
a(I76
I55
I00
tp5390
a(I44
I55
I01
tp5391
a(I33
I55
I01
tp5392
a(I44
I55
I00
tp5393
a(I33
I55
I00
tp5394
a(I14
I37
I01
tp5395
a(I14
I37
I00
tp5396
a(I5
I56
I01
tp5397
a(I5
I56
I00
tp5398
a(I4
I55
I01
tp5399
a(I5
I19
I01
tp5400
a(I4
I55
I00
tp5401
a(I5
I19
I00
tp5402
a(I14
I55
I01
tp5403
a(I14
I55
I00
tp5404
a(I5
I37
I01
tp5405
a(I5
I37
I00
tp5406
a(I5
I55
I01
tp5407
a(I5
I55
I00
tp5408
a.